(dp0
S'5028'
p1
I0
sS'4721'
p2
I0
sS'4824'
p3
I0
sS'4720'
p4
I0
sS'4026'
p5
I0
sS'4027'
p6
I0
sS'4024'
p7
I0
sS'4025'
p8
I0
sS'4022'
p9
I0
sS'4023'
p10
I0
sS'4789'
p11
I0
sS'4788'
p12
I0
sS'4787'
p13
I0
sS'4786'
p14
I0
sS'4785'
p15
I0
sS'4784'
p16
I0
sS'4783'
p17
I0
sS'4782'
p18
I0
sS'4781'
p19
I0
sS'4029'
p20
I0
sS'4149'
p21
I0
sS'4148'
p22
I0
sS'4145'
p23
I0
sS'4144'
p24
I0
sS'4147'
p25
I0
sS'4417'
p26
I1
sS'4141'
p27
I0
sS'4140'
p28
I0
sS'4143'
p29
I0
sS'4142'
p30
I0
sS'4839'
p31
I0
sS'5030'
p32
I0
sS'4822'
p33
I0
sS'4932'
p34
I0
sS'4933'
p35
I0
sS'4170'
p36
I0
sS'4078'
p37
I0
sS'4732'
p38
I0
sS'4570'
p39
I1
sS'4730'
p40
I0
sS'4731'
p41
I0
sS'4736'
p42
I0
sS'4737'
p43
I0
sS'4734'
p44
I0
sS'4735'
p45
I0
sS'4738'
p46
I0
sS'4681'
p47
I0
sS'4527'
p48
I1
sS'4939'
p49
I0
sS'4833'
p50
I0
sS'4329'
p51
I0
sS'4328'
p52
I0
sS'4524'
p53
I1
sS'4020'
p54
I0
sS'4321'
p55
I0
sS'4320'
p56
I0
sS'4323'
p57
I0
sS'4322'
p58
I0
sS'4325'
p59
I0
sS'4324'
p60
I0
sS'4327'
p61
I0
sS'4326'
p62
I0
sS'4655'
p63
I0
sS'4654'
p64
I0
sS'4657'
p65
I0
sS'4656'
p66
I0
sS'4651'
p67
I0
sS'4650'
p68
I0
sS'4558'
p69
I1
sS'4559'
p70
I1
sS'4556'
p71
I1
sS'4557'
p72
I1
sS'4621'
p73
I0
sS'4689'
p74
I0
sS'4659'
p75
I0
sS'4553'
p76
I1
sS'4550'
p77
I1
sS'4551'
p78
I1
sS'4807'
p79
I0
sS'4028'
p80
I0
sS'4780'
p81
I0
sS'5003'
p82
I0
sS'5002'
p83
I0
sS'5001'
p84
I0
sS'4216'
p85
I0
sS'5007'
p86
I0
sS'4210'
p87
I0
sS'4213'
p88
I0
sS'4212'
p89
I0
sS'4196'
p90
I0
sS'4197'
p91
I0
sS'5009'
p92
I0
sS'5008'
p93
I0
sS'4219'
p94
I0
sS'4193'
p95
I0
sS'4190'
p96
I0
sS'4191'
p97
I0
sS'4269'
p98
I0
sS'4358'
p99
I0
sS'4359'
p100
I0
sS'4354'
p101
I0
sS'4355'
p102
I0
sS'4356'
p103
I0
sS'4357'
p104
I0
sS'4350'
p105
I0
sS'4351'
p106
I0
sS'4352'
p107
I0
sS'4353'
p108
I0
sS'4813'
p109
I0
sS'4620'
p110
I0
sS'4428'
p111
I1
sS'4429'
p112
I1
sS'4817'
p113
I0
sS'4816'
p114
I0
sS'4815'
p115
I0
sS'4814'
p116
I0
sS'4422'
p117
I1
sS'4423'
p118
I1
sS'4819'
p119
I0
sS'4818'
p120
I0
sS'4541'
p121
I1
sS'4427'
p122
I1
sS'4424'
p123
I1
sS'4425'
p124
I1
sS'4901'
p125
I0
sS'4958'
p126
I0
sS'4959'
p127
I0
sS'4676'
p128
I0
sS'4952'
p129
I0
sS'4953'
p130
I0
sS'4950'
p131
I0
sS'4951'
p132
I0
sS'4956'
p133
I0
sS'4903'
p134
I0
sS'4954'
p135
I0
sS'4955'
p136
I0
sS'4674'
p137
I0
sS'4905'
p138
I0
sS'4540'
p139
I1
sS'4687'
p140
I0
sS'4101'
p141
I0
sS'4100'
p142
I0
sS'4103'
p143
I0
sS'4102'
p144
I0
sS'4105'
p145
I0
sS'4104'
p146
I0
sS'4107'
p147
I0
sS'4106'
p148
I0
sS'4109'
p149
I0
sS'4108'
p150
I0
sS'4849'
p151
I0
sS'4906'
p152
I0
sS'4379'
p153
I0
sS'4544'
p154
I1
sS'4546'
p155
I1
sS'4914'
p156
I0
sS'4528'
p157
I1
sS'5036'
p158
I0
sS'4776'
p159
I0
sS'4777'
p160
I0
sS'4774'
p161
I0
sS'4775'
p162
I0
sS'4772'
p163
I0
sS'4773'
p164
I0
sS'4770'
p165
I0
sS'4771'
p166
I0
sS'4778'
p167
I0
sS'4779'
p168
I0
sS'4174'
p169
I0
sS'4175'
p170
I0
sS'4176'
p171
I0
sS'4177'
p172
I0
sS'4079'
p173
I0
sS'4171'
p174
I0
sS'4172'
p175
I0
sS'4173'
p176
I0
sS'4075'
p177
I0
sS'4074'
p178
I0
sS'4077'
p179
I0
sS'4076'
p180
I0
sS'4178'
p181
I0
sS'4179'
p182
I0
sS'4073'
p183
I0
sS'4072'
p184
I0
sS'4265'
p185
I0
sS'4904'
p186
I0
sS'4071'
p187
I0
sS'4811'
p188
I0
sS'4619'
p189
I0
sS'4618'
p190
I0
sS'4259'
p191
I0
sS'4070'
p192
I0
sS'4611'
p193
I0
sS'4610'
p194
I0
sS'4613'
p195
I0
sS'4612'
p196
I0
sS'4615'
p197
I0
sS'4614'
p198
I0
sS'4617'
p199
I0
sS'4616'
p200
I0
sS'4680'
p201
I0
sS'4043'
p202
I0
sS'4934'
p203
I0
sS'4863'
p204
I0
sS'5005'
p205
I0
sS'4311'
p206
I0
sS'4312'
p207
I0
sS'4313'
p208
I0
sS'4314'
p209
I0
sS'4315'
p210
I0
sS'4316'
p211
I0
sS'4317'
p212
I0
sS'4251'
p213
I0
sS'4250'
p214
I0
sS'4253'
p215
I0
sS'4252'
p216
I0
sS'4255'
p217
I0
sS'4254'
p218
I0
sS'4257'
p219
I0
sS'4256'
p220
I0
sS'4505'
p221
I1
sS'4504'
p222
I1
sS'4507'
p223
I1
sS'4506'
p224
I1
sS'4501'
p225
I1
sS'4500'
p226
I1
sS'4503'
p227
I1
sS'4502'
p228
I1
sS'4466'
p229
I1
sS'4467'
p230
I1
sS'4464'
p231
I1
sS'4465'
p232
I1
sS'4509'
p233
I1
sS'4463'
p234
I1
sS'5004'
p235
I0
sS'4461'
p236
I1
sS'4397'
p237
I1
sS'4668'
p238
I0
sS'4669'
p239
I0
sS'4439'
p240
I1
sS'4919'
p241
I0
sS'4916'
p242
I0
sS'4917'
p243
I0
sS'4666'
p244
I0
sS'4915'
p245
I0
sS'4912'
p246
I0
sS'4913'
p247
I0
sS'4910'
p248
I0
sS'4911'
p249
I0
sS'4584'
p250
I1
sS'4537'
p251
I1
sS'4522'
p252
I1
sS'4189'
p253
I0
sS'4469'
p254
I1
sS'4261'
p255
I0
sS'4228'
p256
I0
sS'4521'
p257
I1
sS'4224'
p258
I0
sS'4225'
p259
I0
sS'4226'
p260
I0
sS'4227'
p261
I0
sS'4220'
p262
I0
sS'4221'
p263
I0
sS'4222'
p264
I0
sS'4223'
p265
I0
sS'4186'
p266
I0
sS'4389'
p267
I1
sS'4388'
p268
I1
sS'5038'
p269
I0
sS'4383'
p270
I1
sS'4382'
p271
I1
sS'4381'
p272
I1
sS'5039'
p273
I0
sS'4387'
p274
I1
sS'4386'
p275
I1
sS'4385'
p276
I1
sS'4384'
p277
I1
sS'4981'
p278
I0
sS'4268'
p279
I0
sS'4868'
p280
I0
sS'4982'
p281
I0
sS'4985'
p282
I0
sS'4984'
p283
I0
sS'4987'
p284
I0
sS'4986'
p285
I0
sS'4862'
p286
I0
sS'4988'
p287
I0
sS'4860'
p288
I0
sS'4861'
p289
I0
sS'4866'
p290
I0
sS'4867'
p291
I0
sS'4864'
p292
I0
sS'4865'
p293
I0
sS'4935'
p294
I0
sS'4182'
p295
I0
sS'4733'
p296
I0
sS'4185'
p297
I0
sS'5033'
p298
I0
sS'4031'
p299
I0
sS'4030'
p300
I0
sS'4033'
p301
I0
sS'4032'
p302
I0
sS'4035'
p303
I0
sS'4034'
p304
I0
sS'4037'
p305
I0
sS'4036'
p306
I0
sS'4039'
p307
I0
sS'4408'
p308
I1
sS'5031'
p309
I0
sS'4846'
p310
I0
sS'4870'
p311
I0
sS'4138'
p312
I0
sS'4139'
p313
I0
sS'4599'
p314
I0
sS'4130'
p315
I0
sS'4131'
p316
I0
sS'4132'
p317
I0
sS'4133'
p318
I0
sS'4134'
p319
I0
sS'4135'
p320
I0
sS'4136'
p321
I0
sS'4137'
p322
I0
sS'4484'
p323
I1
sS'4485'
p324
I1
sS'4486'
p325
I1
sS'4487'
p326
I1
sS'4848'
p327
I0
sS'4481'
p328
I1
sS'4482'
p329
I1
sS'4483'
p330
I1
sS'4488'
p331
I1
sS'4489'
p332
I1
sS'4243'
p333
I0
sS'4310'
p334
I0
sS'4739'
p335
I0
sS'4433'
p336
I1
sS'4258'
p337
I0
sS'4892'
p338
I0
sS'4879'
p339
I0
sS'4348'
p340
I0
sS'4401'
p341
I1
sS'4146'
p342
I0
sS'4835'
p343
I0
sS'4926'
p344
I0
sS'4462'
p345
I1
sS'4044'
p346
I0
sS'4922'
p347
I0
sS'4046'
p348
I0
sS'4047'
p349
I0
sS'4040'
p350
I0
sS'4041'
p351
I0
sS'4042'
p352
I0
sS'4582'
p353
I1
sS'4725'
p354
I0
sS'4724'
p355
I0
sS'4727'
p356
I0
sS'4726'
p357
I0
sS'4048'
p358
I0
sS'4049'
p359
I0
sS'4723'
p360
I0
sS'4722'
p361
I0
sS'4318'
p362
I0
sS'4319'
p363
I0
sS'4749'
p364
I0
sS'4549'
p365
I1
sS'4548'
p366
I1
sS'4622'
p367
I0
sS'4623'
p368
I0
sS'4624'
p369
I0
sS'4625'
p370
I0
sS'4626'
p371
I0
sS'4627'
p372
I0
sS'4628'
p373
I0
sS'4629'
p374
I0
sS'4543'
p375
I1
sS'4542'
p376
I1
sS'4545'
p377
I1
sS'4920'
p378
I0
sS'4547'
p379
I1
sS'4940'
p380
I0
sS'4828'
p381
I0
sS'4942'
p382
I0
sS'4534'
p383
I1
sS'4535'
p384
I1
sS'4927'
p385
I0
sS'4741'
p386
I0
sS'4260'
p387
I0
sS'4188'
p388
I0
sS'4262'
p389
I0
sS'4263'
p390
I0
sS'4264'
p391
I0
sS'4468'
p392
I1
sS'4266'
p393
I0
sS'4267'
p394
I0
sS'4181'
p395
I0
sS'5037'
p396
I0
sS'4183'
p397
I0
sS'5035'
p398
I0
sS'5032'
p399
I0
sS'4184'
p400
I0
sS'4187'
p401
I0
sS'4948'
p402
I0
sS'4435'
p403
I1
sS'4434'
p404
I1
sS'4437'
p405
I1
sS'4436'
p406
I1
sS'4431'
p407
I1
sS'4430'
p408
I1
sS'4349'
p409
I0
sS'4432'
p410
I1
sS'4347'
p411
I0
sS'4346'
p412
I0
sS'4345'
p413
I0
sS'4533'
p414
I1
sS'4343'
p415
I0
sS'4438'
p416
I1
sS'4341'
p417
I0
sS'4340'
p418
I0
sS'4945'
p419
I0
sS'4944'
p420
I0
sS'4531'
p421
I1
sS'4946'
p422
I0
sS'4538'
p423
I1
sS'4539'
p424
I1
sS'4943'
p425
I0
sS'4829'
p426
I0
sS'4826'
p427
I0
sS'4827'
p428
I0
sS'4536'
p429
I1
sS'4825'
p430
I0
sS'4949'
p431
I0
sS'4823'
p432
I0
sS'4532'
p433
I1
sS'4821'
p434
I0
sS'4460'
p435
I1
sS'4508'
p436
I1
sS'4820'
p437
I0
sS'4740'
p438
I0
sS'4150'
p439
I0
sS'4018'
p440
I0
sS'4157'
p441
I0
sS'4918'
p442
I0
sS'4664'
p443
I0
sS'4665'
p444
I0
sS'4011'
p445
I0
sS'4010'
p446
I0
sS'4653'
p447
I0
sS'4660'
p448
I0
sS'4652'
p449
I0
sS'4661'
p450
I0
sS'4761'
p451
I0
sS'4760'
p452
I0
sS'4763'
p453
I0
sS'4762'
p454
I0
sS'4765'
p455
I0
sS'4764'
p456
I0
sS'4767'
p457
I0
sS'4766'
p458
I0
sS'4769'
p459
I0
sS'4768'
p460
I0
sS'4014'
p461
I0
sS'4554'
p462
I1
sS'4199'
p463
I0
sS'4167'
p464
I0
sS'4166'
p465
I0
sS'4165'
p466
I0
sS'4164'
p467
I0
sS'4163'
p468
I0
sS'4162'
p469
I0
sS'4161'
p470
I0
sS'4160'
p471
I0
sS'4552'
p472
I1
sS'4002'
p473
I0
sS'4003'
p474
I0
sS'4004'
p475
I0
sS'4005'
p476
I0
sS'4169'
p477
I0
sS'4168'
p478
I0
sS'4555'
p479
I1
sS'4129'
p480
I0
sS'4281'
p481
I0
sS'4038'
p482
I0
sS'4287'
p483
I0
sS'4714'
p484
I0
sS'4715'
p485
I0
sS'4716'
p486
I0
sS'4717'
p487
I0
sS'4710'
p488
I0
sS'4711'
p489
I0
sS'4712'
p490
I0
sS'4713'
p491
I0
sS'4718'
p492
I0
sS'4719'
p493
I0
sS'4288'
p494
I0
sS'4303'
p495
I0
sS'4302'
p496
I0
sS'4301'
p497
I0
sS'4300'
p498
I0
sS'4307'
p499
I0
sS'4306'
p500
I0
sS'4305'
p501
I0
sS'4304'
p502
I0
sS'4309'
p503
I0
sS'4308'
p504
I0
sS'4479'
p505
I1
sS'4478'
p506
I1
sS'4572'
p507
I1
sS'4573'
p508
I1
sS'4574'
p509
I1
sS'4575'
p510
I1
sS'4576'
p511
I1
sS'4577'
p512
I1
sS'4578'
p513
I1
sS'4579'
p514
I1
sS'4473'
p515
I1
sS'4472'
p516
I1
sS'4475'
p517
I1
sS'4474'
p518
I1
sS'4477'
p519
I1
sS'4476'
p520
I1
sS'4909'
p521
I0
sS'4908'
p522
I0
sS'4679'
p523
I0
sS'4678'
p524
I0
sS'4677'
p525
I0
sS'4900'
p526
I0
sS'4675'
p527
I0
sS'4902'
p528
I0
sS'4673'
p529
I0
sS'4672'
p530
I0
sS'4671'
p531
I0
sS'4670'
p532
I0
sS'5029'
p533
I0
sS'4947'
p534
I0
sS'4888'
p535
I0
sS'4889'
p536
I0
sS'4938'
p537
I0
sS'4530'
p538
I1
sS'4880'
p539
I0
sS'4881'
p540
I0
sS'4882'
p541
I0
sS'4883'
p542
I0
sS'4884'
p543
I0
sS'4885'
p544
I0
sS'4886'
p545
I0
sS'4887'
p546
I0
sS'4239'
p547
I0
sS'4238'
p548
I0
sS'4237'
p549
I0
sS'4236'
p550
I0
sS'4235'
p551
I0
sS'4234'
p552
I0
sS'4233'
p553
I0
sS'4232'
p554
I0
sS'4231'
p555
I0
sS'4230'
p556
I0
sS'4875'
p557
I0
sS'4874'
p558
I0
sS'4877'
p559
I0
sS'4876'
p560
I0
sS'4871'
p561
I0
sS'4409'
p562
I1
sS'4873'
p563
I0
sS'4872'
p564
I0
sS'4404'
p565
I1
sS'4405'
p566
I1
sS'4406'
p567
I1
sS'4407'
p568
I1
sS'4400'
p569
I1
sS'4878'
p570
I0
sS'4402'
p571
I1
sS'4403'
p572
I1
sS'4658'
p573
I0
sS'4978'
p574
I0
sS'4979'
p575
I0
sS'4974'
p576
I0
sS'4975'
p577
I0
sS'4976'
p578
I0
sS'4977'
p579
I0
sS'4970'
p580
I0
sS'4971'
p581
I0
sS'4972'
p582
I0
sS'4973'
p583
I0
sS'4215'
p584
I0
sS'4214'
p585
I0
sS'4344'
p586
I0
sS'4759'
p587
I0
sS'4217'
p588
I0
sS'5000'
p589
I0
sS'4211'
p590
I0
sS'4096'
p591
I0
sS'5006'
p592
I0
sS'4282'
p593
I0
sS'4283'
p594
I0
sS'4280'
p595
I0
sS'4128'
p596
I0
sS'4286'
p597
I0
sS'4198'
p598
I0
sS'4284'
p599
I0
sS'4285'
p600
I0
sS'4123'
p601
I0
sS'4122'
p602
I0
sS'4121'
p603
I0
sS'4120'
p604
I0
sS'4127'
p605
I0
sS'4126'
p606
I0
sS'4125'
p607
I0
sS'4124'
p608
I0
sS'4497'
p609
I1
sS'4496'
p610
I1
sS'4495'
p611
I1
sS'4494'
p612
I1
sS'4493'
p613
I1
sS'4492'
p614
I1
sS'4491'
p615
I1
sS'4490'
p616
I1
sS'4667'
p617
I0
sS'4194'
p618
I0
sS'4499'
p619
I1
sS'4498'
p620
I1
sS'4195'
p621
I0
sS'4342'
p622
I0
sS'4192'
p623
I0
sS'4218'
p624
I0
sS'4812'
p625
I0
sS'4850'
p626
I0
sS'4057'
p627
I0
sS'4056'
p628
I0
sS'4055'
p629
I0
sS'4054'
p630
I0
sS'4053'
p631
I0
sS'4052'
p632
I0
sS'4051'
p633
I0
sS'4050'
p634
I0
sS'4750'
p635
I0
sS'4751'
p636
I0
sS'4752'
p637
I0
sS'4753'
p638
I0
sS'4754'
p639
I0
sS'4755'
p640
I0
sS'4756'
p641
I0
sS'4058'
p642
I0
sS'4159'
p643
I0
sS'4380'
p644
I1
sS'4229'
p645
I0
sS'4180'
p646
I0
sS'4633'
p647
I0
sS'4632'
p648
I0
sS'4631'
p649
I0
sS'4630'
p650
I0
sS'4637'
p651
I0
sS'4636'
p652
I0
sS'4635'
p653
I0
sS'4634'
p654
I0
sS'4639'
p655
I0
sS'4638'
p656
I0
sS'4372'
p657
I0
sS'4248'
p658
I0
sS'4980'
p659
I0
sS'4362'
p660
I0
sS'4983'
p661
I0
sS'4869'
p662
I0
sS'4273'
p663
I0
sS'4758'
p664
I0
sS'4271'
p665
I0
sS'4270'
p666
I0
sS'4277'
p667
I0
sS'4276'
p668
I0
sS'4275'
p669
I0
sS'4274'
p670
I0
sS'5021'
p671
I0
sS'5020'
p672
I0
sS'4279'
p673
I0
sS'5022'
p674
I0
sS'5025'
p675
I0
sS'5024'
p676
I0
sS'5027'
p677
I0
sS'5026'
p678
I0
sS'4440'
p679
I1
sS'4441'
p680
I1
sS'4378'
p681
I0
sS'4810'
p682
I0
sS'4444'
p683
I1
sS'4445'
p684
I1
sS'4446'
p685
I1
sS'4447'
p686
I1
sS'4448'
p687
I1
sS'4449'
p688
I1
sS'4370'
p689
I0
sS'4371'
p690
I0
sS'4376'
p691
I0
sS'4377'
p692
I0
sS'4374'
p693
I0
sS'4375'
p694
I0
sS'4930'
p695
I0
sS'4838'
p696
I0
sS'4684'
p697
I0
sS'4685'
p698
I0
sS'4682'
p699
I0
sS'4683'
p700
I0
sS'4529'
p701
I1
sS'4937'
p702
I0
sS'4831'
p703
I0
sS'4526'
p704
I1
sS'4525'
p705
I1
sS'4832'
p706
I0
sS'4523'
p707
I1
sS'4834'
p708
I0
sS'4688'
p709
I0
sS'4520'
p710
I1
sS'4420'
p711
I1
sS'4830'
p712
I0
sS'4080'
p713
I0
sS'4081'
p714
I0
sS'4082'
p715
I0
sS'4083'
p716
I0
sS'4084'
p717
I0
sS'4085'
p718
I0
sS'4086'
p719
I0
sS'4087'
p720
I0
sS'4088'
p721
I0
sS'4089'
p722
I0
sS'4059'
p723
I0
sS'5054'
p724
I0
sS'5055'
p725
I0
sS'5056'
p726
I0
sS'4757'
p727
I0
sS'5050'
p728
I0
sS'5051'
p729
I0
sS'5052'
p730
I0
sS'5053'
p731
I0
sS'4373'
p732
I0
sS'4936'
p733
I0
sS'4369'
p734
I0
sS'4592'
p735
I0
sS'4593'
p736
I0
sS'4590'
p737
I0
sS'4591'
p738
I0
sS'4596'
p739
I0
sS'4597'
p740
I0
sS'4594'
p741
I0
sS'4595'
p742
I0
sS'4844'
p743
I0
sS'4845'
p744
I0
sS'4598'
p745
I0
sS'4847'
p746
I0
sS'4840'
p747
I0
sS'4841'
p748
I0
sS'4842'
p749
I0
sS'4843'
p750
I0
sS'4008'
p751
I0
sS'4009'
p752
I0
sS'4921'
p753
I0
sS'4519'
p754
I1
sS'4798'
p755
I0
sS'4799'
p756
I0
sS'4663'
p757
I0
sS'4794'
p758
I0
sS'4795'
p759
I0
sS'4796'
p760
I0
sS'4797'
p761
I0
sS'4790'
p762
I0
sS'4791'
p763
I0
sS'4792'
p764
I0
sS'4793'
p765
I0
sS'4152'
p766
I0
sS'4153'
p767
I0
sS'4019'
p768
I0
sS'4151'
p769
I0
sS'4156'
p770
I0
sS'4925'
p771
I0
sS'4154'
p772
I0
sS'4155'
p773
I0
sS'4013'
p774
I0
sS'4012'
p775
I0
sS'4158'
p776
I0
sS'4696'
p777
I0
sS'4017'
p778
I0
sS'4016'
p779
I0
sS'4015'
p780
I0
sS'4957'
p781
I0
sS'4699'
p782
I0
sS'4513'
p783
I1
sS'4510'
p784
I1
sS'4928'
p785
I0
sS'4855'
p786
I0
sS'4837'
p787
I0
sS'4421'
p788
I1
sS'4007'
p789
I0
sS'4707'
p790
I0
sS'4706'
p791
I0
sS'4705'
p792
I0
sS'4704'
p793
I0
sS'4703'
p794
I0
sS'4702'
p795
I0
sS'4701'
p796
I0
sS'4700'
p797
I0
sS'4709'
p798
I0
sS'4708'
p799
I0
sS'4836'
p800
I0
sS'4289'
p801
I0
sS'4991'
p802
I0
sS'4518'
p803
I1
sS'4338'
p804
I0
sS'4339'
p805
I0
sS'4336'
p806
I0
sS'4337'
p807
I0
sS'4334'
p808
I0
sS'4335'
p809
I0
sS'4332'
p810
I0
sS'4333'
p811
I0
sS'4330'
p812
I0
sS'4331'
p813
I0
sS'4563'
p814
I1
sS'4562'
p815
I1
sS'4561'
p816
I1
sS'4560'
p817
I1
sS'4567'
p818
I1
sS'4566'
p819
I1
sS'4565'
p820
I1
sS'4564'
p821
I1
sS'4569'
p822
I1
sS'4568'
p823
I1
sS'4648'
p824
I0
sS'4649'
p825
I0
sS'4642'
p826
I0
sS'4643'
p827
I0
sS'4640'
p828
I0
sS'4641'
p829
I0
sS'4646'
p830
I0
sS'4647'
p831
I0
sS'4644'
p832
I0
sS'4645'
p833
I0
sS'4662'
p834
I0
sS'5010'
p835
I0
sS'5011'
p836
I0
sS'4899'
p837
I0
sS'4898'
p838
I0
sS'5014'
p839
I0
sS'5015'
p840
I0
sS'5016'
p841
I0
sS'5017'
p842
I0
sS'5018'
p843
I0
sS'4851'
p844
I0
sS'4891'
p845
I0
sS'4890'
p846
I0
sS'4897'
p847
I0
sS'4896'
p848
I0
sS'4272'
p849
I0
sS'4894'
p850
I0
sS'4208'
p851
I0
sS'4209'
p852
I0
sS'4858'
p853
I0
sS'4202'
p854
I0
sS'4203'
p855
I0
sS'4200'
p856
I0
sS'4201'
p857
I0
sS'4206'
p858
I0
sS'4207'
p859
I0
sS'4204'
p860
I0
sS'4205'
p861
I0
sS'4800'
p862
I0
sS'4801'
p863
I0
sS'4802'
p864
I0
sS'4803'
p865
I0
sS'4804'
p866
I0
sS'4805'
p867
I0
sS'4419'
p868
I1
sS'4418'
p869
I1
sS'4808'
p870
I0
sS'4809'
p871
I0
sS'4415'
p872
I1
sS'4414'
p873
I1
sS'4413'
p874
I1
sS'4412'
p875
I1
sS'4411'
p876
I1
sS'4410'
p877
I1
sS'4001'
p878
I0
sS'4969'
p879
I0
sS'4968'
p880
I0
sS'4967'
p881
I0
sS'4966'
p882
I0
sS'4965'
p883
I0
sS'4964'
p884
I0
sS'4963'
p885
I0
sS'4962'
p886
I0
sS'4961'
p887
I0
sS'4960'
p888
I0
sS'4583'
p889
I1
sS'4116'
p890
I0
sS'4117'
p891
I0
sS'4114'
p892
I0
sS'4115'
p893
I0
sS'4112'
p894
I0
sS'4113'
p895
I0
sS'4110'
p896
I0
sS'4111'
p897
I0
sS'4118'
p898
I0
sS'4119'
p899
I0
sS'4299'
p900
I0
sS'4298'
p901
I0
sS'4295'
p902
I0
sS'4294'
p903
I0
sS'4297'
p904
I0
sS'4296'
p905
I0
sS'4291'
p906
I0
sS'4290'
p907
I0
sS'4293'
p908
I0
sS'4292'
p909
I0
sS'4686'
p910
I0
sS'4923'
p911
I0
sS'5048'
p912
I0
sS'5012'
p913
I0
sS'4989'
p914
I0
sS'5013'
p915
I0
sS'5046'
p916
I0
sS'4426'
p917
I1
sS'4062'
p918
I0
sS'4063'
p919
I0
sS'4060'
p920
I0
sS'4061'
p921
I0
sS'4066'
p922
I0
sS'4067'
p923
I0
sS'4064'
p924
I0
sS'4065'
p925
I0
sS'4743'
p926
I0
sS'4742'
p927
I0
sS'4068'
p928
I0
sS'4069'
p929
I0
sS'4747'
p930
I0
sS'4746'
p931
I0
sS'4745'
p932
I0
sS'4744'
p933
I0
sS'4893'
p934
I0
sS'4442'
p935
I1
sS'5019'
p936
I0
sS'5040'
p937
I0
sS'4006'
p938
I0
sS'4907'
p939
I0
sS'4748'
p940
I0
sS'4895'
p941
I0
sS'4608'
p942
I0
sS'4609'
p943
I0
sS'4606'
p944
I0
sS'4607'
p945
I0
sS'4604'
p946
I0
sS'4605'
p947
I0
sS'4602'
p948
I0
sS'4603'
p949
I0
sS'4600'
p950
I0
sS'4601'
p951
I0
sS'4571'
p952
I1
sS'4480'
p953
I1
sS'4045'
p954
I0
sS'4365'
p955
I0
sS'4364'
p956
I0
sS'4367'
p957
I0
sS'4366'
p958
I0
sS'4361'
p959
I0
sS'4360'
p960
I0
sS'4363'
p961
I0
sS'4249'
p962
I0
sS'4246'
p963
I0
sS'4247'
p964
I0
sS'4244'
p965
I0
sS'4245'
p966
I0
sS'4242'
p967
I0
sS'4368'
p968
I0
sS'4240'
p969
I0
sS'4241'
p970
I0
sS'4453'
p971
I1
sS'4452'
p972
I1
sS'4451'
p973
I1
sS'4450'
p974
I1
sS'4457'
p975
I1
sS'4456'
p976
I1
sS'4455'
p977
I1
sS'4454'
p978
I1
sS'4459'
p979
I1
sS'4458'
p980
I1
sS'5034'
p981
I0
sS'4691'
p982
I0
sS'4690'
p983
I0
sS'4693'
p984
I0
sS'4692'
p985
I0
sS'4695'
p986
I0
sS'4694'
p987
I0
sS'4697'
p988
I0
sS'4924'
p989
I0
sS'4512'
p990
I1
sS'4698'
p991
I0
sS'4929'
p992
I0
sS'4511'
p993
I1
sS'4516'
p994
I1
sS'4517'
p995
I1
sS'4514'
p996
I1
sS'4515'
p997
I1
sS'4995'
p998
I0
sS'4471'
p999
I1
sS'4021'
p1000
I0
sS'4992'
p1001
I0
sS'4278'
p1002
I0
sS'5023'
p1003
I0
sS'4588'
p1004
I0
sS'4093'
p1005
I0
sS'4092'
p1006
I0
sS'4091'
p1007
I0
sS'4090'
p1008
I0
sS'4097'
p1009
I0
sS'4990'
p1010
I0
sS'4095'
p1011
I0
sS'4094'
p1012
I0
sS'4099'
p1013
I0
sS'4098'
p1014
I0
sS'4931'
p1015
I0
sS'4585'
p1016
I1
sS'4470'
p1017
I1
sS'4853'
p1018
I0
sS'5049'
p1019
I0
sS'4941'
p1020
I0
sS'5047'
p1021
I0
sS'4729'
p1022
I0
sS'5045'
p1023
I0
sS'5044'
p1024
I0
sS'5043'
p1025
I0
sS'5042'
p1026
I0
sS'5041'
p1027
I0
sS'4728'
p1028
I0
sS'4398'
p1029
I1
sS'4399'
p1030
I1
sS'4586'
p1031
I0
sS'4806'
p1032
I0
sS'4390'
p1033
I1
sS'4391'
p1034
I1
sS'4392'
p1035
I1
sS'4393'
p1036
I1
sS'4394'
p1037
I1
sS'4395'
p1038
I1
sS'4396'
p1039
I1
sS'4852'
p1040
I0
sS'4996'
p1041
I0
sS'4997'
p1042
I0
sS'4994'
p1043
I0
sS'4443'
p1044
I1
sS'4589'
p1045
I0
sS'4993'
p1046
I0
sS'4859'
p1047
I0
sS'4416'
p1048
I1
sS'4857'
p1049
I0
sS'4856'
p1050
I0
sS'4587'
p1051
I0
sS'4854'
p1052
I0
sS'4581'
p1053
I1
sS'4580'
p1054
I1
sS'4998'
p1055
I0
sS'4999'
p1056
I0
s.