(dp0
S'1377181630463'
p1
I0
sS'1377181602814'
p2
I1
sS'1377181610364'
p3
I0
sS'1377181618414'
p4
I0
sS'1377181616314'
p5
I0
sS'1377181603814'
p6
I1
sS'1377181584314'
p7
I0
sS'1377181606864'
p8
I1
sS'1377181592614'
p9
I0
sS'1377181604114'
p10
I1
sS'1377181586614'
p11
I0
sS'1377181595064'
p12
I0
sS'1377181593214'
p13
I0
sS'1377181622114'
p14
I0
sS'1377181599914'
p15
I1
sS'1377181631913'
p16
I0
sS'1377181607414'
p17
I1
sS'1377181601664'
p18
I1
sS'1377181598514'
p19
I1
sS'1377181603614'
p20
I1
sS'1377181595664'
p21
I0
sS'1377181614214'
p22
I0
sS'1377181587714'
p23
I0
sS'1377181613014'
p24
I0
sS'1377181610164'
p25
I0
sS'1377181618314'
p26
I0
sS'1377181587064'
p27
I0
sS'1377181588664'
p28
I0
sS'1377181631413'
p29
I0
sS'1377181589364'
p30
I0
sS'1377181621014'
p31
I0
sS'1377181604614'
p32
I1
sS'1377181617314'
p33
I0
sS'1377181599214'
p34
I1
sS'1377181608614'
p35
I0
sS'1377181622614'
p36
I0
sS'1377181587264'
p37
I0
sS'1377181588064'
p38
I0
sS'1377181589914'
p39
I0
sS'1377181614864'
p40
I0
sS'1377181587664'
p41
I0
sS'1377181579664'
p42
I0
sS'1377181628913'
p43
I0
sS'1377181612014'
p44
I0
sS'1377181602864'
p45
I1
sS'1377181612764'
p46
I0
sS'1377181611164'
p47
I0
sS'1377181591314'
p48
I0
sS'1377181582614'
p49
I0
sS'1377181579614'
p50
I0
sS'1377181603964'
p51
I1
sS'1377181612564'
p52
I0
sS'1377181601714'
p53
I1
sS'1377181628313'
p54
I0
sS'1377181586764'
p55
I0
sS'1377181605114'
p56
I1
sS'1377181585414'
p57
I0
sS'1377181617114'
p58
I0
sS'1377181607564'
p59
I1
sS'1377181615364'
p60
I0
sS'1377181590914'
p61
I0
sS'1377181589964'
p62
I0
sS'1377181596764'
p63
I0
sS'1377181609564'
p64
I0
sS'1377181582114'
p65
I0
sS'1377181612514'
p66
I0
sS'1377181627663'
p67
I0
sS'1377181590314'
p68
I0
sS'1377181630263'
p69
I0
sS'1377181594864'
p70
I0
sS'1377181631713'
p71
I0
sS'1377181619614'
p72
I0
sS'1377181624314'
p73
I0
sS'1377181614914'
p74
I0
sS'1377181583514'
p75
I0
sS'1377181602964'
p76
I1
sS'1377181619214'
p77
I0
sS'1377181606714'
p78
I1
sS'1377181581164'
p79
I0
sS'1377181587364'
p80
I0
sS'1377181581514'
p81
I0
sS'1377181620714'
p82
I0
sS'1377181619964'
p83
I0
sS'1377181601214'
p84
I1
sS'1377181627813'
p85
I0
sS'1377181613564'
p86
I0
sS'1377181629513'
p87
I0
sS'1377181587564'
p88
I0
sS'1377181603364'
p89
I1
sS'1377181627613'
p90
I0
sS'1377181585664'
p91
I0
sS'1377181606014'
p92
I1
sS'1377181615514'
p93
I0
sS'1377181596864'
p94
I0
sS'1377181610464'
p95
I0
sS'1377181618614'
p96
I0
sS'1377181620014'
p97
I0
sS'1377181585464'
p98
I0
sS'1377181596614'
p99
I0
sS'1377181628763'
p100
I0
sS'1377181608114'
p101
I1
sS'1377181598314'
p102
I1
sS'1377181594314'
p103
I0
sS'1377181607664'
p104
I1
sS'1377181597414'
p105
I0
sS'1377181621564'
p106
I0
sS'1377181621614'
p107
I0
sS'1377181583014'
p108
I0
sS'1377181631213'
p109
I0
sS'1377181602914'
p110
I1
sS'1377181601764'
p111
I1
sS'1377181602564'
p112
I1
sS'1377181609114'
p113
I0
sS'1377181613414'
p114
I0
sS'1377181595564'
p115
I0
sS'1377181607014'
p116
I1
sS'1377181604914'
p117
I1
sS'1377181580064'
p118
I0
sS'1377181597764'
p119
I0
sS'1377181612864'
p120
I0
sS'1377181613964'
p121
I0
sS'1377181586264'
p122
I0
sS'1377181628163'
p123
I0
sS'1377181600864'
p124
I1
sS'1377181610514'
p125
I0
sS'1377181629963'
p126
I0
sS'1377181584614'
p127
I0
sS'1377181602314'
p128
I1
sS'1377181617814'
p129
I0
sS'1377181592714'
p130
I0
sS'1377181608964'
p131
I0
sS'1377181593114'
p132
I0
sS'1377181628613'
p133
I0
sS'1377181580114'
p134
I0
sS'1377181593964'
p135
I0
sS'1377181617014'
p136
I0
sS'1377181585564'
p137
I0
sS'1377181609164'
p138
I0
sS'1377181623714'
p139
I0
sS'1377181608064'
p140
I1
sS'1377181589414'
p141
I0
sS'1377181608764'
p142
I0
sS'1377181613114'
p143
I0
sS'1377181609514'
p144
I0
sS'1377181599814'
p145
I1
sS'1377181597564'
p146
I0
sS'1377181594764'
p147
I0
sS'1377181615164'
p148
I0
sS'1377181585364'
p149
I0
sS'1377181611114'
p150
I0
sS'1377181611464'
p151
I0
sS'1377181626863'
p152
I0
sS'1377181631513'
p153
I0
sS'1377181600164'
p154
I1
sS'1377181623914'
p155
I0
sS'1377181616664'
p156
I0
sS'1377181630913'
p157
I0
sS'1377181616514'
p158
I0
sS'1377181622264'
p159
I0
sS'1377181592814'
p160
I0
sS'1377181604964'
p161
I1
sS'1377181586314'
p162
I0
sS'1377181593814'
p163
I0
sS'1377181622714'
p164
I0
sS'1377181594114'
p165
I0
sS'1377181615964'
p166
I0
sS'1377181586914'
p167
I0
sS'1377181601064'
p168
I1
sS'1377181626013'
p169
I0
sS'1377181591214'
p170
I0
sS'1377181618914'
p171
I0
sS'1377181608364'
p172
I1
sS'1377181591014'
p173
I0
sS'1377181627013'
p174
I0
sS'1377181593364'
p175
I0
sS'1377181592664'
p176
I0
sS'1377181609764'
p177
I0
sS'1377181593714'
p178
I0
sS'1377181594014'
p179
I0
sS'1377181600714'
p180
I1
sS'1377181585514'
p181
I0
sS'1377181629113'
p182
I0
sS'1377181601614'
p183
I1
sS'1377181616814'
p184
I0
sS'1377181613064'
p185
I0
sS'1377181588764'
p186
I0
sS'1377181584864'
p187
I0
sS'1377181589314'
p188
I0
sS'1377181623964'
p189
I0
sS'1377181582014'
p190
I0
sS'1377181631813'
p191
I0
sS'1377181590464'
p192
I0
sS'1377181625114'
p193
I0
sS'1377181592914'
p194
I0
sS'1377181628863'
p195
I0
sS'1377181579414'
p196
I0
sS'1377181612164'
p197
I0
sS'1377181614814'
p198
I0
sS'1377181592564'
p199
I0
sS'1377181586964'
p200
I0
sS'1377181617914'
p201
I0
sS'1377181621914'
p202
I0
sS'1377181610864'
p203
I0
sS'1377181593564'
p204
I0
sS'1377181629413'
p205
I0
sS'1377181591364'
p206
I0
sS'1377181596164'
p207
I0
sS'1377181585164'
p208
I0
sS'1377181583964'
p209
I0
sS'1377181608564'
p210
I0
sS'1377181609864'
p211
I0
sS'1377181593764'
p212
I0
sS'1377181614464'
p213
I0
sS'1377181624514'
p214
I0
sS'1377181605714'
p215
I1
sS'1377181606114'
p216
I1
sS'1377181622964'
p217
I0
sS'1377181584914'
p218
I0
sS'1377181592964'
p219
I0
sS'1377181590264'
p220
I0
sS'1377181599314'
p221
I1
sS'1377181596714'
p222
I0
sS'1377181609464'
p223
I0
sS'1377181613364'
p224
I0
sS'1377181583114'
p225
I0
sS'1377181586864'
p226
I0
sS'1377181597064'
p227
I0
sS'1377181619664'
p228
I0
sS'1377181622764'
p229
I0
sS'1377181609264'
p230
I0
sS'1377181623864'
p231
I0
sS'1377181579464'
p232
I0
sS'1377181590164'
p233
I0
sS'1377181581014'
p234
I0
sS'1377181620914'
p235
I0
sS'1377181610264'
p236
I0
sS'1377181585064'
p237
I0
sS'1377181592364'
p238
I0
sS'1377181613514'
p239
I0
sS'1377181629563'
p240
I0
sS'1377181606414'
p241
I1
sS'1377181608414'
p242
I1
sS'1377181598914'
p243
I1
sS'1377181597114'
p244
I0
sS'1377181585314'
p245
I0
sS'1377181619364'
p246
I0
sS'1377181597664'
p247
I0
sS'1377181605814'
p248
I1
sS'1377181622814'
p249
I0
sS'1377181619714'
p250
I0
sS'1377181610414'
p251
I0
sS'1377181584164'
p252
I0
sS'1377181593664'
p253
I0
sS'1377181598264'
p254
I1
sS'1377181607714'
p255
I1
sS'1377181623614'
p256
I0
sS'1377181598614'
p257
I1
sS'1377181618514'
p258
I0
sS'1377181584364'
p259
I0
sS'1377181587814'
p260
I0
sS'1377181621764'
p261
I0
sS'1377181613464'
p262
I0
sS'1377181586814'
p263
I0
sS'1377181620464'
p264
I0
sS'1377181581264'
p265
I0
sS'1377181612464'
p266
I0
sS'1377181589514'
p267
I0
sS'1377181603114'
p268
I1
sS'1377181583064'
p269
I0
sS'1377181586464'
p270
I0
sS'1377181623814'
p271
I0
sS'1377181600114'
p272
I1
sS'1377181581064'
p273
I0
sS'1377181630813'
p274
I0
sS'1377181628263'
p275
I0
sS'1377181617414'
p276
I0
sS'1377181612914'
p277
I0
sS'1377181616414'
p278
I0
sS'1377181628013'
p279
I0
sS'1377181584764'
p280
I0
sS'1377181598864'
p281
I1
sS'1377181618764'
p282
I0
sS'1377181622064'
p283
I0
sS'1377181626113'
p284
I0
sS'1377181595014'
p285
I0
sS'1377181630313'
p286
I0
sS'1377181580864'
p287
I0
sS'1377181598464'
p288
I1
sS'1377181584264'
p289
I0
sS'1377181611764'
p290
I0
sS'1377181591664'
p291
I0
sS'1377181629663'
p292
I0
sS'1377181582514'
p293
I0
sS'1377181596964'
p294
I0
sS'1377181625963'
p295
I0
sS'1377181605914'
p296
I1
sS'1377181580164'
p297
I0
sS'1377181598664'
p298
I1
sS'1377181584464'
p299
I0
sS'1377181621164'
p300
I0
sS'1377181599964'
p301
I1
sS'1377181595714'
p302
I0
sS'1377181623764'
p303
I0
sS'1377181594614'
p304
I0
sS'1377181612414'
p305
I0
sS'1377181621364'
p306
I0
sS'1377181590864'
p307
I0
sS'1377181618864'
p308
I0
sS'1377181620114'
p309
I0
sS'1377181603014'
p310
I1
sS'1377181618714'
p311
I0
sS'1377181604664'
p312
I1
sS'1377181588114'
p313
I0
sS'1377181585964'
p314
I0
sS'1377181600614'
p315
I1
sS'1377181627113'
p316
I0
sS'1377181604214'
p317
I1
sS'1377181622664'
p318
I0
sS'1377181582764'
p319
I0
sS'1377181620414'
p320
I0
sS'1377181599364'
p321
I1
sS'1377181601114'
p322
I1
sS'1377181618064'
p323
I0
sS'1377181587914'
p324
I0
sS'1377181622364'
p325
I0
sS'1377181626963'
p326
I0
sS'1377181580264'
p327
I0
sS'1377181582564'
p328
I0
sS'1377181581764'
p329
I0
sS'1377181581714'
p330
I0
sS'1377181618964'
p331
I0
sS'1377181584214'
p332
I0
sS'1377181622564'
p333
I0
sS'1377181600914'
p334
I1
sS'1377181620364'
p335
I0
sS'1377181611614'
p336
I0
sS'1377181605964'
p337
I1
sS'1377181605614'
p338
I1
sS'1377181590614'
p339
I0
sS'1377181619564'
p340
I0
sS'1377181589214'
p341
I0
sS'1377181615214'
p342
I0
sS'1377181621964'
p343
I0
sS'1377181586714'
p344
I0
sS'1377181604064'
p345
I1
sS'1377181631313'
p346
I0
sS'1377181582164'
p347
I0
sS'1377181584814'
p348
I0
sS'1377181599064'
p349
I1
sS'1377181624064'
p350
I0
sS'1377181598164'
p351
I0
sS'1377181620664'
p352
I0
sS'1377181621264'
p353
I0
sS'1377181607364'
p354
I1
sS'1377181631863'
p355
I0
sS'1377181606464'
p356
I1
sS'1377181582464'
p357
I0
sS'1377181604814'
p358
I1
sS'1377181583564'
p359
I0
sS'1377181625164'
p360
I0
sS'1377181592414'
p361
I0
sS'1377181579264'
p362
I0
sS'1377181621464'
p363
I0
sS'1377181607314'
p364
I1
sS'1377181587964'
p365
I0
sS'1377181626363'
p366
I0
sS'1377181622314'
p367
I0
sS'1377181582264'
p368
I0
sS'1377181627763'
p369
I0
sS'1377181587414'
p370
I0
sS'1377181616964'
p371
I0
sS'1377181596014'
p372
I0
sS'1377181608264'
p373
I1
sS'1377181580464'
p374
I0
sS'1377181608714'
p375
I0
sS'1377181609914'
p376
I0
sS'1377181602014'
p377
I1
sS'1377181624464'
p378
I0
sS'1377181627563'
p379
I0
sS'1377181608514'
p380
I0
sS'1377181625214'
p381
I0
sS'1377181624014'
p382
I0
sS'1377181606064'
p383
I1
sS'1377181605764'
p384
I1
sS'1377181583364'
p385
I0
sS'1377181583414'
p386
I0
sS'1377181625014'
p387
I0
sS'1377181618664'
p388
I0
sS'1377181620064'
p389
I0
sS'1377181621864'
p390
I0
sS'1377181622914'
p391
I0
sS'1377181598714'
p392
I1
sS'1377181605264'
p393
I1
sS'1377181613214'
p394
I0
sS'1377181624764'
p395
I0
sS'1377181620564'
p396
I0
sS'1377181607614'
p397
I1
sS'1377181623264'
p398
I0
sS'1377181621214'
p399
I0
sS'1377181631263'
p400
I0
sS'1377181607164'
p401
I1
sS'1377181599664'
p402
I1
sS'1377181597014'
p403
I0
sS'1377181617864'
p404
I0
sS'1377181582414'
p405
I0
sS'1377181581114'
p406
I0
sS'1377181631613'
p407
I0
sS'1377181582864'
p408
I0
sS'1377181626563'
p409
I0
sS'1377181579864'
p410
I0
sS'1377181617514'
p411
I0
sS'1377181604364'
p412
I1
sS'1377181602514'
p413
I1
sS'1377181580514'
p414
I0
sS'1377181602264'
p415
I1
sS'1377181594214'
p416
I0
sS'1377181628113'
p417
I0
sS'1377181613814'
p418
I0
sS'1377181627863'
p419
I0
sS'1377181605464'
p420
I1
sS'1377181624664'
p421
I0
sS'1377181604564'
p422
I1
sS'1377181624264'
p423
I0
sS'1377181598764'
p424
I1
sS'1377181612814'
p425
I0
sS'1377181597714'
p426
I0
sS'1377181602064'
p427
I1
sS'1377181606664'
p428
I1
sS'1377181602364'
p429
I1
sS'1377181627463'
p430
I0
sS'1377181630213'
p431
I0
sS'1377181608814'
p432
I0
sS'1377181616164'
p433
I0
sS'1377181605314'
p434
I1
sS'1377181600264'
p435
I1
sS'1377181623464'
p436
I0
sS'1377181623314'
p437
I0
sS'1377181595614'
p438
I0
sS'1377181601514'
p439
I1
sS'1377181627263'
p440
I0
sS'1377181616864'
p441
I0
sS'1377181620514'
p442
I0
sS'1377181599714'
p443
I1
sS'1377181631463'
p444
I0
sS'1377181589464'
p445
I0
sS'1377181585214'
p446
I0
sS'1377181591964'
p447
I0
sS'1377181620964'
p448
I0
sS'1377181589014'
p449
I0
sS'1377181594714'
p450
I0
sS'1377181600014'
p451
I1
sS'1377181603164'
p452
I1
sS'1377181630963'
p453
I0
sS'1377181588014'
p454
I0
sS'1377181626413'
p455
I0
sS'1377181631663'
p456
I0
sS'1377181604314'
p457
I1
sS'1377181616564'
p458
I0
sS'1377181617464'
p459
I0
sS'1377181610664'
p460
I0
sS'1377181624164'
p461
I0
sS'1377181607864'
p462
I1
sS'1377181617164'
p463
I0
sS'1377181601014'
p464
I1
sS'1377181629713'
p465
I0
sS'1377181630363'
p466
I0
sS'1377181611714'
p467
I0
sS'1377181602164'
p468
I1
sS'1377181608314'
p469
I1
sS'1377181627413'
p470
I0
sS'1377181591614'
p471
I0
sS'1377181601564'
p472
I1
sS'1377181602764'
p473
I1
sS'1377181589264'
p474
I0
sS'1377181606564'
p475
I1
sS'1377181595764'
p476
I0
sS'1377181625264'
p477
I0
sS'1377181596414'
p478
I0
sS'1377181593064'
p479
I0
sS'1377181617764'
p480
I0
sS'1377181589064'
p481
I0
sS'1377181606364'
p482
I1
sS'1377181610764'
p483
I0
sS'1377181631113'
p484
I0
sS'1377181624114'
p485
I0
sS'1377181591114'
p486
I0
sS'1377181591814'
p487
I0
sS'1377181616364'
p488
I0
sS'1377181581464'
p489
I0
sS'1377181588164'
p490
I0
sS'1377181625514'
p491
I0
sS'1377181631763'
p492
I0
sS'1377181621814'
p493
I0
sS'1377181607914'
p494
I1
sS'1377181614114'
p495
I0
sS'1377181600314'
p496
I1
sS'1377181590664'
p497
I0
sS'1377181587514'
p498
I0
sS'1377181613614'
p499
I0
sS'1377181592514'
p500
I0
sS'1377181610914'
p501
I0
sS'1377181630063'
p502
I0
sS'1377181619914'
p503
I0
sS'1377181583814'
p504
I0
sS'1377181585114'
p505
I0
sS'1377181602114'
p506
I1
sS'1377181594564'
p507
I0
sS'1377181596114'
p508
I0
sS'1377181614514'
p509
I0
sS'1377181611664'
p510
I0
sS'1377181619414'
p511
I0
sS'1377181604264'
p512
I1
sS'1377181596664'
p513
I0
sS'1377181589164'
p514
I0
sS'1377181609814'
p515
I0
sS'1377181591164'
p516
I0
sS'1377181624414'
p517
I0
sS'1377181603464'
p518
I1
sS'1377181615264'
p519
I0
sS'1377181593914'
p520
I0
sS'1377181596464'
p521
I0
sS'1377181589764'
p522
I0
sS'1377181587114'
p523
I0
sS'1377181625464'
p524
I0
sS'1377181599114'
p525
I1
sS'1377181615764'
p526
I0
sS'1377181630163'
p527
I0
sS'1377181613314'
p528
I0
sS'1377181609314'
p529
I0
sS'1377181580014'
p530
I0
sS'1377181590014'
p531
I0
sS'1377181626213'
p532
I0
sS'1377181588264'
p533
I0
sS'1377181622214'
p534
I0
sS'1377181613664'
p535
I0
sS'1377181600414'
p536
I1
sS'1377181613914'
p537
I0
sS'1377181616064'
p538
I0
sS'1377181610214'
p539
I0
sS'1377181587464'
p540
I0
sS'1377181610564'
p541
I0
sS'1377181586114'
p542
I0
sS'1377181580414'
p543
I0
sS'1377181601864'
p544
I1
sS'1377181628713'
p545
I0
sS'1377181600964'
p546
I1
sS'1377181595264'
p547
I0
sS'1377181631013'
p548
I0
sS'1377181583214'
p549
I0
sS'1377181589114'
p550
I0
sS'1377181603514'
p551
I1
sS'1377181614964'
p552
I0
sS'1377181597614'
p553
I0
sS'1377181586514'
p554
I0
sS'1377181588864'
p555
I0
sS'1377181587164'
p556
I0
sS'1377181600664'
p557
I1
sS'1377181615614'
p558
I0
sS'1377181625664'
p559
I0
sS'1377181607764'
p560
I1
sS'1377181628463'
p561
I0
sS'1377181605214'
p562
I1
sS'1377181629313'
p563
I0
sS'1377181596564'
p564
I0
sS'1377181597964'
p565
I0
sS'1377181623214'
p566
I0
sS'1377181628963'
p567
I0
sS'1377181605864'
p568
I1
sS'1377181614064'
p569
I0
sS'1377181599614'
p570
I1
sS'1377181582914'
p571
I0
sS'1377181596364'
p572
I0
sS'1377181586414'
p573
I0
sS'1377181612314'
p574
I0
sS'1377181609414'
p575
I0
sS'1377181626513'
p576
I0
sS'1377181586664'
p577
I0
sS'1377181586364'
p578
I0
sS'1377181630713'
p579
I0
sS'1377181588464'
p580
I0
sS'1377181627913'
p581
I0
sS'1377181605514'
p582
I1
sS'1377181616014'
p583
I0
sS'1377181628063'
p584
I0
sS'1377181612964'
p585
I0
sS'1377181611364'
p586
I0
sS'1377181613864'
p587
I0
sS'1377181623514'
p588
I0
sS'1377181586164'
p589
I0
sS'1377181595314'
p590
I0
sS'1377181628413'
p591
I0
sS'1377181594064'
p592
I0
sS'1377181595914'
p593
I0
sS'1377181580914'
p594
I0
sS'1377181606964'
p595
I1
sS'1377181629613'
p596
I0
sS'1377181615414'
p597
I0
sS'1377181608864'
p598
I0
sS'1377181601914'
p599
I1
sS'1377181579514'
p600
I0
sS'1377181629163'
p601
I0
sS'1377181584514'
p602
I0
sS'1377181590714'
p603
I0
sS'1377181612214'
p604
I0
sS'1377181629213'
p605
I0
sS'1377181620814'
p606
I0
sS'1377181596514'
p607
I0
sS'1377181610064'
p608
I0
sS'1377181626613'
p609
I0
sS'1377181594664'
p610
I0
sS'1377181629363'
p611
I0
sS'1377181585264'
p612
I0
sS'1377181619814'
p613
I0
sS'1377181614264'
p614
I0
sS'1377181600064'
p615
I1
sS'1377181588514'
p616
I0
sS'1377181597864'
p617
I0
sS'1377181611214'
p618
I0
sS'1377181608914'
p619
I0
sS'1377181628663'
p620
I0
sS'1377181585914'
p621
I0
sS'1377181626813'
p622
I0
sS'1377181611814'
p623
I0
sS'1377181618114'
p624
I0
sS'1377181625414'
p625
I0
sS'1377181610814'
p626
I0
sS'1377181601164'
p627
I1
sS'1377181581614'
p628
I0
sS'1377181607814'
p629
I1
sS'1377181595964'
p630
I0
sS'1377181583914'
p631
I0
sS'1377181586064'
p632
I0
sS'1377181580214'
p633
I0
sS'1377181622414'
p634
I0
sS'1377181594264'
p635
I0
sS'1377181603864'
p636
I1
sS'1377181614414'
p637
I0
sS'1377181607264'
p638
I1
sS'1377181612664'
p639
I0
sS'1377181610614'
p640
I0
sS'1377181590964'
p641
I0
sS'1377181617064'
p642
I0
sS'1377181625314'
p643
I0
sS'1377181616114'
p644
I0
sS'1377181607464'
p645
I1
sS'1377181584964'
p646
I0
sS'1377181619514'
p647
I0
sS'1377181617614'
p648
I0
sS'1377181587014'
p649
I0
sS'1377181618564'
p650
I0
sS'1377181612264'
p651
I0
sS'1377181602464'
p652
I1
sS'1377181629863'
p653
I0
sS'1377181609214'
p654
I0
sS'1377181597314'
p655
I0
sS'1377181599014'
p656
I1
sS'1377181600364'
p657
I1
sS'1377181590114'
p658
I0
sS'1377181595864'
p659
I0
sS'1377181621514'
p660
I0
sS'1377181611864'
p661
I0
sS'1377181626313'
p662
I0
sS'1377181592464'
p663
I0
sS'1377181582314'
p664
I0
sS'1377181630113'
p665
I0
sS'1377181579714'
p666
I0
sS'1377181608464'
p667
I1
sS'1377181592014'
p668
I0
sS'1377181610964'
p669
I0
sS'1377181603264'
p670
I1
sS'1377181586014'
p671
I0
sS'1377181612714'
p672
I0
sS'1377181628563'
p673
I0
sS'1377181596064'
p674
I0
sS'1377181583864'
p675
I0
sS'1377181608664'
p676
I0
sS'1377181622864'
p677
I0
sS'1377181609964'
p678
I0
sS'1377181614564'
p679
I0
sS'1377181628363'
p680
I0
sS'1377181585764'
p681
I0
sS'1377181625614'
p682
I0
sS'1377181583314'
p683
I0
sS'1377181603414'
p684
I1
sS'1377181587864'
p685
I0
sS'1377181630663'
p686
I0
sS'1377181624614'
p687
I0
sS'1377181587314'
p688
I0
sS'1377181611964'
p689
I0
sS'1377181613264'
p690
I0
sS'1377181615914'
p691
I0
sS'1377181597364'
p692
I0
sS'1377181594814'
p693
I0
sS'1377181620214'
p694
I0
sS'1377181609364'
p695
I0
sS'1377181588314'
p696
I0
sS'1377181595814'
p697
I0
sS'1377181625863'
p698
I0
sS'1377181592264'
p699
I0
sS'1377181601464'
p700
I1
sS'1377181579914'
p701
I0
sS'1377181590064'
p702
I0
sS'1377181595464'
p703
I0
sS'1377181582814'
p704
I0
sS'1377181630613'
p705
I0
sS'1377181592064'
p706
I0
sS'1377181601264'
p707
I1
sS'1377181579364'
p708
I0
sS'1377181604414'
p709
I1
sS'1377181615014'
p710
I0
sS'1377181596314'
p711
I0
sS'1377181605414'
p712
I1
sS'1377181628513'
p713
I0
sS'1377181585614'
p714
I0
sS'1377181586214'
p715
I0
sS'1377181623414'
p716
I0
sS'1377181598014'
p717
I0
sS'1377181595214'
p718
I0
sS'1377181591514'
p719
I0
sS'1377181614664'
p720
I0
sS'1377181627313'
p721
I0
sS'1377181593864'
p722
I0
sS'1377181584414'
p723
I0
sS'1377181597264'
p724
I0
sS'1377181609064'
p725
I0
sS'1377181608164'
p726
I1
sS'1377181618814'
p727
I0
sS'1377181593164'
p728
I0
sS'1377181611914'
p729
I0
sS'1377181597464'
p730
I0
sS'1377181601364'
p731
I1
sS'1377181611564'
p732
I0
sS'1377181608214'
p733
I1
sS'1377181610714'
p734
I0
sS'1377181586564'
p735
I0
sS'1377181614014'
p736
I0
sS'1377181601414'
p737
I1
sS'1377181612364'
p738
I0
sS'1377181600214'
p739
I1
sS'1377181607064'
p740
I1
sS'1377181588414'
p741
I0
sS'1377181579314'
p742
I0
sS'1377181611314'
p743
I0
sS'1377181581864'
p744
I0
sS'1377181591764'
p745
I0
sS'1377181592164'
p746
I0
sS'1377181598814'
p747
I1
sS'1377181606814'
p748
I1
sS'1377181629763'
p749
I0
sS'1377181622514'
p750
I0
sS'1377181580964'
p751
I0
sS'1377181593264'
p752
I0
sS'1377181591564'
p753
I0
sS'1377181592764'
p754
I0
sS'1377181615314'
p755
I0
sS'1377181597214'
p756
I0
sS'1377181613764'
p757
I0
sS'1377181597914'
p758
I0
sS'1377181602614'
p759
I1
sS'1377181584564'
p760
I0
sS'1377181587764'
p761
I0
sS'1377181609664'
p762
I0
sS'1377181593614'
p763
I0
sS'1377181613164'
p764
I0
sS'1377181626263'
p765
I0
sS'1377181606214'
p766
I1
sS'1377181579814'
p767
I0
sS'1377181581814'
p768
I0
sS'1377181617714'
p769
I0
sS'1377181580814'
p770
I0
sS'1377181585864'
p771
I0
sS'1377181597814'
p772
I0
sS'1377181619064'
p773
I0
sS'1377181621414'
p774
I0
sS'1377181583614'
p775
I0
sS'1377181592864'
p776
I0
sS'1377181612064'
p777
I0
sS'1377181625913'
p778
I0
sS'1377181582214'
p779
I0
sS'1377181591464'
p780
I0
sS'1377181590564'
p781
I0
sS'1377181618164'
p782
I0
sS'1377181592114'
p783
I0
sS'1377181630013'
p784
I0
sS'1377181580364'
p785
I0
sS'1377181581664'
p786
I0
sS'1377181591264'
p787
I0
sS'1377181580714'
p788
I0
sS'1377181594414'
p789
I0
sS'1377181622464'
p790
I0
sS'1377181580564'
p791
I0
sS'1377181593464'
p792
I0
sS'1377181612614'
p793
I0
sS'1377181613714'
p794
I0
sS'1377181609714'
p795
I0
sS'1377181619464'
p796
I0
sS'1377181615864'
p797
I0
sS'1377181619014'
p798
I0
sS'1377181589614'
p799
I0
sS'1377181590364'
p800
I0
sS'1377181618014'
p801
I0
sS'1377181626913'
p802
I0
sS'1377181616214'
p803
I0
sS'1377181603314'
p804
I1
sS'1377181583464'
p805
I0
sS'1377181623114'
p806
I0
sS'1377181599164'
p807
I1
sS'1377181598064'
p808
I0
sS'1377181629813'
p809
I0
sS'1377181581914'
p810
I0
sS'1377181619764'
p811
I0
sS'1377181620314'
p812
I0
sS'1377181599514'
p813
I1
sS'1377181614764'
p814
I0
sS'1377181581564'
p815
I0
sS'1377181585814'
p816
I0
sS'1377181590414'
p817
I0
sS'1377181604864'
p818
I1
sS'1377181594964'
p819
I0
sS'1377181594914'
p820
I0
sS'1377181591414'
p821
I0
sS'1377181629263'
p822
I0
sS'1377181588214'
p823
I0
sS'1377181582364'
p824
I0
sS'1377181591864'
p825
I0
sS'1377181604514'
p826
I1
sS'1377181580764'
p827
I0
sS'1377181593514'
p828
I0
sS'1377181629463'
p829
I0
sS'1377181616714'
p830
I0
sS'1377181619264'
p831
I0
sS'1377181601814'
p832
I1
sS'1377181619864'
p833
I0
sS'1377181581964'
p834
I0
sS'1377181583264'
p835
I0
sS'1377181585714'
p836
I0
sS'1377181598364'
p837
I1
sS'1377181623364'
p838
I0
sS'1377181627213'
p839
I0
sS'1377181619114'
p840
I0
sS'1377181593014'
p841
I0
sS'1377181599764'
p842
I1
sS'1377181583764'
p843
I0
sS'1377181584064'
p844
I0
sS'1377181618364'
p845
I0
sS'1377181621664'
p846
I0
sS'1377181623164'
p847
I0
sS'1377181600814'
p848
I1
sS'1377181629063'
p849
I0
sS'1377181599564'
p850
I1
sS'1377181583164'
p851
I0
sS'1377181626463'
p852
I0
sS'1377181596214'
p853
I0
sS'1377181620264'
p854
I0
sS'1377181595514'
p855
I0
sS'1377181582964'
p856
I0
sS'1377181581364'
p857
I0
sS'1377181579964'
p858
I0
sS'1377181600764'
p859
I1
sS'1377181627963'
p860
I0
sS'1377181619314'
p861
I0
sS'1377181626663'
p862
I0
sS'1377181598114'
p863
I0
sS'1377181605564'
p864
I1
sS'1377181604464'
p865
I1
sS'1377181584664'
p866
I0
sS'1377181598964'
p867
I1
sS'1377181624714'
p868
I0
sS'1377181619164'
p869
I0
sS'1377181623564'
p870
I0
sS'1377181615114'
p871
I0
sS'1377181580664'
p872
I0
sS'1377181604164'
p873
I1
sS'1377181614714'
p874
I0
sS'1377181623064'
p875
I0
sS'1377181606914'
p876
I1
sS'1377181622164'
p877
I0
sS'1377181627363'
p878
I0
sS'1377181591064'
p879
I0
sS'1377181584114'
p880
I0
sS'1377181602714'
p881
I1
sS'1377181590764'
p882
I0
sS'1377181598564'
p883
I1
sS'1377181602414'
p884
I1
sS'1377181599864'
p885
I1
sS'1377181583714'
p886
I0
sS'1377181623664'
p887
I0
sS'1377181624814'
p888
I0
sS'1377181585014'
p889
I0
sS'1377181610114'
p890
I0
sS'1377181611414'
p891
I0
sS'1377181580314'
p892
I0
sS'1377181606314'
p893
I1
sS'1377181620864'
p894
I0
sS'1377181621064'
p895
I0
sS'1377181579764'
p896
I0
sS'1377181618264'
p897
I0
sS'1377181581214'
p898
I0
sS'1377181600514'
p899
I1
sS'1377181600564'
p900
I1
sS'1377181604764'
p901
I1
sS'1377181610014'
p902
I0
sS'1377181607214'
p903
I1
sS'1377181596814'
p904
I0
sS'1377181594364'
p905
I0
sS'1377181605364'
p906
I1
sS'1377181588914'
p907
I0
sS'1377181631163'
p908
I0
sS'1377181603064'
p909
I1
sS'1377181599264'
p910
I1
sS'1377181626763'
p911
I0
sS'1377181625813'
p912
I0
sS'1377181625763'
p913
I0
sS'1377181605164'
p914
I1
sS'1377181617264'
p915
I0
sS'1377181604014'
p916
I1
sS'1377181582664'
p917
I0
sS'1377181618214'
p918
I0
sS'1377181593314'
p919
I0
sS'1377181580614'
p920
I0
sS'1377181622014'
p921
I0
sS'1377181594514'
p922
I0
sS'1377181616914'
p923
I0
sS'1377181626163'
p924
I0
sS'1377181603914'
p925
I1
sS'1377181627063'
p926
I0
sS'1377181623014'
p927
I0
sS'1377181598414'
p928
I1
sS'1377181630413'
p929
I0
sS'1377181590814'
p930
I0
sS'1377181587614'
p931
I0
sS'1377181607514'
p932
I1
sS'1377181602664'
p933
I1
sS'1377181624864'
p934
I0
sS'1377181621114'
p935
I0
sS'1377181589714'
p936
I0
sS'1377181603714'
p937
I1
sS'1377181625364'
p938
I0
sS'1377181609614'
p939
I0
sS'1377181615814'
p940
I0
sS'1377181621314'
p941
I0
sS'1377181625714'
p942
I0
sS'1377181617664'
p943
I0
sS'1377181606264'
p944
I1
sS'1377181582064'
p945
I0
sS'1377181615064'
p946
I0
sS'1377181617214'
p947
I0
sS'1377181618464'
p948
I0
sS'1377181604714'
p949
I1
sS'1377181599414'
p950
I1
sS'1377181606764'
p951
I1
sS'1377181614364'
p952
I0
sS'1377181612114'
p953
I0
sS'1377181625064'
p954
I0
sS'1377181589814'
p955
I0
sS'1377181631963'
p956
I0
sS'1377181620764'
p957
I0
sS'1377181628813'
p958
I0
sS'1377181631063'
p959
I0
sS'1377181582714'
p960
I0
sS'1377181600464'
p961
I1
sS'1377181626713'
p962
I0
sS'1377181590514'
p963
I0
sS'1377181630513'
p964
I0
sS'1377181592314'
p965
I0
sS'1377181626063'
p966
I0
sS'1377181616614'
p967
I0
sS'1377181605064'
p968
I1
sS'1377181603214'
p969
I1
sS'1377181594464'
p970
I0
sS'1377181624564'
p971
I0
sS'1377181628213'
p972
I0
sS'1377181603564'
p973
I1
sS'1377181595114'
p974
I0
sS'1377181591714'
p975
I0
sS'1377181593414'
p976
I0
sS'1377181606164'
p977
I1
sS'1377181605664'
p978
I1
sS'1377181625564'
p979
I0
sS'1377181599464'
p980
I1
sS'1377181627163'
p981
I0
sS'1377181588614'
p982
I0
sS'1377181620164'
p983
I0
sS'1377181603764'
p984
I1
sS'1377181607964'
p985
I1
sS'1377181589664'
p986
I0
sS'1377181615564'
p987
I0
sS'1377181624214'
p988
I0
sS'1377181592214'
p989
I0
sS'1377181624964'
p990
I0
sS'1377181615464'
p991
I0
sS'1377181606614'
p992
I1
sS'1377181581414'
p993
I0
sS'1377181620614'
p994
I0
sS'1377181597164'
p995
I0
sS'1377181614314'
p996
I0
sS'1377181631363'
p997
I0
sS'1377181589864'
p998
I0
sS'1377181581314'
p999
I0
sS'1377181630763'
p1000
I0
sS'1377181588364'
p1001
I0
sS'1377181617964'
p1002
I0
sS'1377181591914'
p1003
I0
sS'1377181627513'
p1004
I0
sS'1377181588714'
p1005
I0
sS'1377181595414'
p1006
I0
sS'1377181601314'
p1007
I1
sS'1377181606514'
p1008
I1
sS'1377181595364'
p1009
I0
sS'1377181611014'
p1010
I0
sS'1377181627713'
p1011
I0
sS'1377181630563'
p1012
I0
sS'1377181605014'
p1013
I1
sS'1377181601964'
p1014
I1
sS'1377181583664'
p1015
I0
sS'1377181616764'
p1016
I0
sS'1377181595164'
p1017
I0
sS'1377181632013'
p1018
I0
sS'1377181624364'
p1019
I0
sS'1377181598214'
p1020
I1
sS'1377181579564'
p1021
I0
sS'1377181616264'
p1022
I0
sS'1377181588964'
p1023
I0
sS'1377181614614'
p1024
I0
sS'1377181608014'
p1025
I1
sS'1377181629913'
p1026
I0
sS'1377181621714'
p1027
I0
sS'1377181624914'
p1028
I0
sS'1377181614164'
p1029
I0
sS'1377181603664'
p1030
I1
sS'1377181609014'
p1031
I0
sS'1377181597514'
p1032
I0
sS'1377181584014'
p1033
I0
sS'1377181589564'
p1034
I0
sS'1377181629013'
p1035
I0
sS'1377181615714'
p1036
I0
sS'1377181610314'
p1037
I0
sS'1377181631563'
p1038
I0
sS'1377181607114'
p1039
I1
sS'1377181588564'
p1040
I0
sS'1377181617364'
p1041
I0
sS'1377181611514'
p1042
I0
sS'1377181596264'
p1043
I0
sS'1377181611264'
p1044
I0
sS'1377181587214'
p1045
I0
sS'1377181630863'
p1046
I0
sS'1377181616464'
p1047
I0
sS'1377181590214'
p1048
I0
sS'1377181617564'
p1049
I0
sS'1377181588814'
p1050
I0
sS'1377181594164'
p1051
I0
sS'1377181584714'
p1052
I0
sS'1377181611064'
p1053
I0
sS'1377181602214'
p1054
I1
sS'1377181615664'
p1055
I0
sS'1377181596914'
p1056
I0
s.