(dp0
S'6207'
p1
I0
sS'6261'
p2
I0
sS'6125'
p3
I0
sS'6124'
p4
I0
sS'6127'
p5
I0
sS'6126'
p6
I0
sS'6121'
p7
I0
sS'6120'
p8
I0
sS'6088'
p9
I0
sS'6089'
p10
I0
sS'6086'
p11
I0
sS'6087'
p12
I0
sS'6084'
p13
I0
sS'6085'
p14
I0
sS'6082'
p15
I0
sS'6083'
p16
I0
sS'6080'
p17
I0
sS'6081'
p18
I0
sS'6006'
p19
I0
sS'6007'
p20
I0
sS'6004'
p21
I0
sS'6005'
p22
I0
sS'6002'
p23
I0
sS'6003'
p24
I0
sS'6001'
p25
I0
sS'6185'
p26
I0
sS'6008'
p27
I0
sS'6009'
p28
I0
sS'6248'
p29
I0
sS'6249'
p30
I0
sS'6221'
p31
I0
sS'6240'
p32
I0
sS'6226'
p33
I0
sS'6242'
p34
I0
sS'6243'
p35
I0
sS'6244'
p36
I0
sS'6245'
p37
I0
sS'6246'
p38
I0
sS'6227'
p39
I0
sS'6295'
p40
I0
sS'6224'
p41
I0
sS'6225'
p42
I0
sS'6099'
p43
I0
sS'6098'
p44
I0
sS'6152'
p45
I0
sS'6153'
p46
I0
sS'6154'
p47
I0
sS'6155'
p48
I0
sS'6156'
p49
I0
sS'6157'
p50
I0
sS'6091'
p51
I0
sS'6090'
p52
I0
sS'6093'
p53
I0
sS'6092'
p54
I0
sS'6095'
p55
I0
sS'6094'
p56
I0
sS'6097'
p57
I0
sS'6096'
p58
I0
sS'6011'
p59
I0
sS'6010'
p60
I0
sS'6013'
p61
I0
sS'6012'
p62
I0
sS'6015'
p63
I0
sS'6014'
p64
I0
sS'6017'
p65
I0
sS'6016'
p66
I0
sS'6019'
p67
I0
sS'6018'
p68
I0
sS'6300'
p69
I0
sS'6297'
p70
I0
sS'6259'
p71
I0
sS'6258'
p72
I0
sS'6189'
p73
I0
sS'6296'
p74
I0
sS'6253'
p75
I0
sS'6230'
p76
I0
sS'6251'
p77
I0
sS'6188'
p78
I0
sS'6257'
p79
I0
sS'6256'
p80
I0
sS'6255'
p81
I0
sS'6254'
p82
I0
sS'6294'
p83
I0
sS'6123'
p84
I0
sS'6293'
p85
I0
sS'6122'
p86
I0
sS'6292'
p87
I0
sS'6143'
p88
I0
sS'6142'
p89
I0
sS'6141'
p90
I0
sS'6140'
p91
I0
sS'6147'
p92
I0
sS'6146'
p93
I0
sS'6145'
p94
I0
sS'6144'
p95
I0
sS'6149'
p96
I0
sS'6148'
p97
I0
sS'6234'
p98
I0
sS'6217'
p99
I0
sS'6264'
p100
I0
sS'6250'
p101
I0
sS'6262'
p102
I0
sS'6263'
p103
I0
sS'6260'
p104
I0
sS'6216'
p105
I0
sS'6129'
p106
I0
sS'6215'
p107
I0
sS'6268'
p108
I0
sS'6128'
p109
I0
sS'6064'
p110
I0
sS'6065'
p111
I0
sS'6066'
p112
I0
sS'6067'
p113
I0
sS'6060'
p114
I0
sS'6061'
p115
I0
sS'6062'
p116
I0
sS'6063'
p117
I0
sS'6305'
p118
I0
sS'6190'
p119
I0
sS'6307'
p120
I0
sS'6306'
p121
I0
sS'6068'
p122
I0
sS'6069'
p123
I0
sS'6303'
p124
I0
sS'6191'
p125
I0
sS'6192'
p126
I0
sS'6210'
p127
I0
sS'6222'
p128
I0
sS'6178'
p129
I0
sS'6179'
p130
I0
sS'6176'
p131
I0
sS'6177'
p132
I0
sS'6174'
p133
I0
sS'6175'
p134
I0
sS'6172'
p135
I0
sS'6173'
p136
I0
sS'6170'
p137
I0
sS'6171'
p138
I0
sS'6271'
p139
I0
sS'6270'
p140
I0
sS'6273'
p141
I0
sS'6187'
p142
I0
sS'6275'
p143
I0
sS'6219'
p144
I0
sS'6277'
p145
I0
sS'6276'
p146
I0
sS'6279'
p147
I0
sS'6198'
p148
I0
sS'6199'
p149
I0
sS'6077'
p150
I0
sS'6076'
p151
I0
sS'6075'
p152
I0
sS'6074'
p153
I0
sS'6073'
p154
I0
sS'6072'
p155
I0
sS'6071'
p156
I0
sS'6070'
p157
I0
sS'6218'
p158
I0
sS'6269'
p159
I0
sS'6079'
p160
I0
sS'6078'
p161
I0
sS'6186'
p162
I0
sS'6304'
p163
I0
sS'6301'
p164
I0
sS'6228'
p165
I0
sS'6233'
p166
I0
sS'6169'
p167
I0
sS'6168'
p168
I0
sS'6161'
p169
I0
sS'6160'
p170
I0
sS'6163'
p171
I0
sS'6162'
p172
I0
sS'6165'
p173
I0
sS'6164'
p174
I0
sS'6167'
p175
I0
sS'6166'
p176
I0
sS'6204'
p177
I0
sS'6288'
p178
I0
sS'6289'
p179
I0
sS'6205'
p180
I0
sS'6284'
p181
I0
sS'6285'
p182
I0
sS'6286'
p183
I0
sS'6287'
p184
I0
sS'6280'
p185
I0
sS'6206'
p186
I0
sS'6282'
p187
I0
sS'6283'
p188
I0
sS'6042'
p189
I0
sS'6043'
p190
I0
sS'6040'
p191
I0
sS'6041'
p192
I0
sS'6046'
p193
I0
sS'6047'
p194
I0
sS'6044'
p195
I0
sS'6045'
p196
I0
sS'6200'
p197
I0
sS'6048'
p198
I0
sS'6049'
p199
I0
sS'6208'
p200
I0
sS'6209'
p201
I0
sS'6201'
p202
I0
sS'6202'
p203
I0
sS'6203'
p204
I0
sS'6236'
p205
I0
sS'6247'
p206
I0
sS'6272'
p207
I0
sS'6290'
p208
I0
sS'6241'
p209
I0
sS'6158'
p210
I0
sS'6267'
p211
I0
sS'6302'
p212
I0
sS'6274'
p213
I0
sS'6118'
p214
I0
sS'6119'
p215
I0
sS'6299'
p216
I0
sS'6298'
p217
I0
sS'6114'
p218
I0
sS'6115'
p219
I0
sS'6116'
p220
I0
sS'6117'
p221
I0
sS'6110'
p222
I0
sS'6111'
p223
I0
sS'6112'
p224
I0
sS'6113'
p225
I0
sS'6194'
p226
I0
sS'6195'
p227
I0
sS'6196'
p228
I0
sS'6197'
p229
I0
sS'6059'
p230
I0
sS'6058'
p231
I0
sS'6159'
p232
I0
sS'6193'
p233
I0
sS'6055'
p234
I0
sS'6054'
p235
I0
sS'6057'
p236
I0
sS'6056'
p237
I0
sS'6051'
p238
I0
sS'6050'
p239
I0
sS'6053'
p240
I0
sS'6052'
p241
I0
sS'6291'
p242
I0
sS'6214'
p243
I0
sS'6252'
p244
I0
sS'6229'
p245
I0
sS'6232'
p246
I0
sS'6109'
p247
I0
sS'6108'
p248
I0
sS'6107'
p249
I0
sS'6106'
p250
I0
sS'6105'
p251
I0
sS'6104'
p252
I0
sS'6103'
p253
I0
sS'6102'
p254
I0
sS'6101'
p255
I0
sS'6100'
p256
I0
sS'6028'
p257
I0
sS'6029'
p258
I0
sS'6220'
p259
I0
sS'6184'
p260
I0
sS'6183'
p261
I0
sS'6182'
p262
I0
sS'6181'
p263
I0
sS'6180'
p264
I0
sS'6020'
p265
I0
sS'6021'
p266
I0
sS'6022'
p267
I0
sS'6023'
p268
I0
sS'6024'
p269
I0
sS'6025'
p270
I0
sS'6026'
p271
I0
sS'6027'
p272
I0
sS'6266'
p273
I0
sS'6223'
p274
I0
sS'6238'
p275
I0
sS'6231'
p276
I0
sS'6235'
p277
I0
sS'6265'
p278
I0
sS'6212'
p279
I0
sS'6278'
p280
I0
sS'6237'
p281
I0
sS'6213'
p282
I0
sS'6150'
p283
I0
sS'6138'
p284
I0
sS'6139'
p285
I0
sS'6281'
p286
I0
sS'6151'
p287
I0
sS'6132'
p288
I0
sS'6133'
p289
I0
sS'6130'
p290
I0
sS'6131'
p291
I0
sS'6136'
p292
I0
sS'6137'
p293
I0
sS'6134'
p294
I0
sS'6135'
p295
I0
sS'6039'
p296
I0
sS'6038'
p297
I0
sS'6239'
p298
I0
sS'6211'
p299
I0
sS'6033'
p300
I0
sS'6032'
p301
I0
sS'6031'
p302
I0
sS'6030'
p303
I0
sS'6037'
p304
I0
sS'6036'
p305
I0
sS'6035'
p306
I0
sS'6034'
p307
I0
s.