(dp0
S'1269'
p1
I0
sS'1268'
p2
I0
sS'1159'
p3
I0
sS'1261'
p4
I0
sS'1799'
p5
I0
sS'1260'
p6
I0
sS'1793'
p7
I0
sS'1792'
p8
I0
sS'1791'
p9
I0
sS'1790'
p10
I0
sS'1797'
p11
I0
sS'1796'
p12
I0
sS'1795'
p13
I0
sS'1794'
p14
I0
sS'1069'
p15
I0
sS'1068'
p16
I0
sS'1061'
p17
I0
sS'1060'
p18
I0
sS'1063'
p19
I0
sS'1062'
p20
I0
sS'1065'
p21
I0
sS'1064'
p22
I0
sS'1067'
p23
I0
sS'1066'
p24
I0
sS'1087'
p25
I0
sS'1129'
p26
I0
sS'1085'
p27
I0
sS'1084'
p28
I0
sS'1083'
p29
I0
sS'1082'
p30
I0
sS'1081'
p31
I0
sS'1080'
p32
I0
sS'1120'
p33
I0
sS'1121'
p34
I0
sS'1122'
p35
I0
sS'1123'
p36
I0
sS'1124'
p37
I0
sS'1125'
p38
I0
sS'1089'
p39
I0
sS'1127'
p40
I0
sS'1234'
p41
I0
sS'1235'
p42
I0
sS'1236'
p43
I0
sS'1237'
p44
I0
sS'1230'
p45
I0
sS'1231'
p46
I0
sS'1232'
p47
I0
sS'1233'
p48
I0
sS'1238'
p49
I0
sS'1239'
p50
I0
sS'1849'
p51
I0
sS'1848'
p52
I0
sS'1843'
p53
I0
sS'1842'
p54
I0
sS'1841'
p55
I0
sS'1840'
p56
I0
sS'1847'
p57
I0
sS'1846'
p58
I0
sS'1845'
p59
I0
sS'1844'
p60
I0
sS'1241'
p61
I0
sS'1240'
p62
I0
sS'1243'
p63
I0
sS'1242'
p64
I0
sS'1245'
p65
I0
sS'1244'
p66
I0
sS'1247'
p67
I0
sS'1246'
p68
I0
sS'1249'
p69
I0
sS'1248'
p70
I0
sS'1908'
p71
I0
sS'1909'
p72
I0
sS'1906'
p73
I0
sS'1907'
p74
I0
sS'1904'
p75
I0
sS'1905'
p76
I0
sS'1902'
p77
I0
sS'1903'
p78
I0
sS'1900'
p79
I0
sS'1901'
p80
I0
sS'1798'
p81
I0
sS'1199'
p82
I0
sS'1198'
p83
I0
sS'1056'
p84
I0
sS'1057'
p85
I0
sS'1191'
p86
I0
sS'1190'
p87
I0
sS'1193'
p88
I0
sS'1192'
p89
I0
sS'1195'
p90
I0
sS'1194'
p91
I0
sS'1197'
p92
I0
sS'1196'
p93
I0
sS'1759'
p94
I0
sS'1758'
p95
I0
sS'1757'
p96
I0
sS'1756'
p97
I0
sS'1755'
p98
I0
sS'1754'
p99
I0
sS'1753'
p100
I0
sS'1752'
p101
I0
sS'1751'
p102
I0
sS'1750'
p103
I0
sS'1177'
p104
I0
sS'1279'
p105
I0
sS'1175'
p106
I0
sS'1174'
p107
I0
sS'1173'
p108
I0
sS'1172'
p109
I0
sS'1171'
p110
I0
sS'1170'
p111
I0
sS'1270'
p112
I0
sS'1271'
p113
I0
sS'1272'
p114
I0
sS'1273'
p115
I0
sS'1274'
p116
I0
sS'1275'
p117
I0
sS'1276'
p118
I0
sS'1277'
p119
I0
sS'1889'
p120
I0
sS'1888'
p121
I0
sS'1887'
p122
I0
sS'1886'
p123
I0
sS'1885'
p124
I0
sS'1884'
p125
I0
sS'1883'
p126
I0
sS'1882'
p127
I0
sS'1881'
p128
I0
sS'1880'
p129
I0
sS'1285'
p130
I0
sS'1284'
p131
I0
sS'1287'
p132
I0
sS'1286'
p133
I0
sS'1281'
p134
I0
sS'1280'
p135
I0
sS'1283'
p136
I0
sS'1282'
p137
I0
sS'1289'
p138
I0
sS'1288'
p139
I0
sS'1058'
p140
I0
sS'1059'
p141
I0
sS'1304'
p142
I0
sS'1305'
p143
I0
sS'1306'
p144
I0
sS'1307'
p145
I0
sS'1300'
p146
I0
sS'1301'
p147
I0
sS'1302'
p148
I0
sS'1303'
p149
I0
sS'1308'
p150
I0
sS'1309'
p151
I0
sS'1218'
p152
I0
sS'1832'
p153
I0
sS'1833'
p154
I0
sS'1830'
p155
I0
sS'1831'
p156
I0
sS'1836'
p157
I0
sS'1837'
p158
I0
sS'1834'
p159
I0
sS'1835'
p160
I0
sS'1838'
p161
I0
sS'1839'
p162
I0
sS'1278'
p163
I0
sS'1176'
p164
I0
sS'1139'
p165
I0
sS'1138'
p166
I0
sS'1133'
p167
I0
sS'1132'
p168
I0
sS'1131'
p169
I0
sS'1130'
p170
I0
sS'1137'
p171
I0
sS'1136'
p172
I0
sS'1135'
p173
I0
sS'1134'
p174
I0
sS'1179'
p175
I0
sS'1178'
p176
I0
sS'1227'
p177
I0
sS'1226'
p178
I0
sS'1225'
p179
I0
sS'1224'
p180
I0
sS'1223'
p181
I0
sS'1222'
p182
I0
sS'1221'
p183
I0
sS'1220'
p184
I0
sS'1229'
p185
I0
sS'1228'
p186
I0
sS'1876'
p187
I0
sS'1877'
p188
I0
sS'1874'
p189
I0
sS'1875'
p190
I0
sS'1872'
p191
I0
sS'1873'
p192
I0
sS'1870'
p193
I0
sS'1871'
p194
I0
sS'1878'
p195
I0
sS'1879'
p196
I0
sS'1918'
p197
I0
sS'1126'
p198
I0
sS'1911'
p199
I0
sS'1910'
p200
I0
sS'1913'
p201
I0
sS'1912'
p202
I0
sS'1915'
p203
I0
sS'1914'
p204
I0
sS'1917'
p205
I0
sS'1916'
p206
I0
sS'1768'
p207
I0
sS'1769'
p208
I0
sS'1762'
p209
I0
sS'1763'
p210
I0
sS'1760'
p211
I0
sS'1761'
p212
I0
sS'1766'
p213
I0
sS'1767'
p214
I0
sS'1764'
p215
I0
sS'1765'
p216
I0
sS'1142'
p217
I0
sS'1143'
p218
I0
sS'1140'
p219
I0
sS'1141'
p220
I0
sS'1146'
p221
I0
sS'1147'
p222
I0
sS'1144'
p223
I0
sS'1145'
p224
I0
sS'1263'
p225
I0
sS'1262'
p226
I0
sS'1148'
p227
I0
sS'1149'
p228
I0
sS'1267'
p229
I0
sS'1266'
p230
I0
sS'1265'
p231
I0
sS'1264'
p232
I0
sS'1316'
p233
I0
sS'1315'
p234
I0
sS'1314'
p235
I0
sS'1313'
p236
I0
sS'1312'
p237
I0
sS'1311'
p238
I0
sS'1310'
p239
I0
sS'1829'
p240
I0
sS'1828'
p241
I0
sS'1825'
p242
I0
sS'1824'
p243
I0
sS'1827'
p244
I0
sS'1826'
p245
I0
sS'1821'
p246
I0
sS'1820'
p247
I0
sS'1823'
p248
I0
sS'1822'
p249
I0
sS'1773'
p250
I0
sS'1772'
p251
I0
sS'1072'
p252
I0
sS'1778'
p253
I0
sS'1209'
p254
I0
sS'1161'
p255
I0
sS'1212'
p256
I0
sS'1213'
p257
I0
sS'1210'
p258
I0
sS'1211'
p259
I0
sS'1216'
p260
I0
sS'1217'
p261
I0
sS'1214'
p262
I0
sS'1215'
p263
I0
sS'1201'
p264
I0
sS'1128'
p265
I0
sS'1219'
p266
I0
sS'1200'
p267
I0
sS'1861'
p268
I0
sS'1860'
p269
I0
sS'1863'
p270
I0
sS'1862'
p271
I0
sS'1865'
p272
I0
sS'1864'
p273
I0
sS'1867'
p274
I0
sS'1866'
p275
I0
sS'1869'
p276
I0
sS'1868'
p277
I0
sS'1106'
p278
I0
sS'1107'
p279
I0
sS'1104'
p280
I0
sS'1105'
p281
I0
sS'1102'
p282
I0
sS'1103'
p283
I0
sS'1100'
p284
I0
sS'1101'
p285
I0
sS'1108'
p286
I0
sS'1109'
p287
I0
sS'1088'
p288
I0
sS'1091'
p289
I0
sS'1814'
p290
I0
sS'1815'
p291
I0
sS'1816'
p292
I0
sS'1817'
p293
I0
sS'1810'
p294
I0
sS'1811'
p295
I0
sS'1812'
p296
I0
sS'1813'
p297
I0
sS'1818'
p298
I0
sS'1819'
p299
I0
sS'1151'
p300
I0
sS'1099'
p301
I0
sS'1086'
p302
I0
sS'1788'
p303
I0
sS'1789'
p304
I0
sS'1780'
p305
I0
sS'1781'
p306
I0
sS'1782'
p307
I0
sS'1783'
p308
I0
sS'1784'
p309
I0
sS'1785'
p310
I0
sS'1786'
p311
I0
sS'1787'
p312
I0
sS'1775'
p313
I0
sS'1774'
p314
I0
sS'1777'
p315
I0
sS'1776'
p316
I0
sS'1771'
p317
I0
sS'1770'
p318
I0
sS'1078'
p319
I0
sS'1079'
p320
I0
sS'1076'
p321
I0
sS'1077'
p322
I0
sS'1074'
p323
I0
sS'1075'
p324
I0
sS'1779'
p325
I0
sS'1073'
p326
I0
sS'1070'
p327
I0
sS'1071'
p328
I0
sS'1112'
p329
I0
sS'1113'
p330
I0
sS'1094'
p331
I0
sS'1095'
p332
I0
sS'1096'
p333
I0
sS'1097'
p334
I0
sS'1090'
p335
I0
sS'1158'
p336
I0
sS'1092'
p337
I0
sS'1093'
p338
I0
sS'1155'
p339
I0
sS'1154'
p340
I0
sS'1157'
p341
I0
sS'1156'
p342
I0
sS'1098'
p343
I0
sS'1150'
p344
I0
sS'1153'
p345
I0
sS'1152'
p346
I0
sS'1119'
p347
I0
sS'1118'
p348
I0
sS'1858'
p349
I0
sS'1859'
p350
I0
sS'1850'
p351
I0
sS'1851'
p352
I0
sS'1852'
p353
I0
sS'1853'
p354
I0
sS'1854'
p355
I0
sS'1855'
p356
I0
sS'1856'
p357
I0
sS'1857'
p358
I0
sS'1256'
p359
I0
sS'1257'
p360
I0
sS'1254'
p361
I0
sS'1255'
p362
I0
sS'1252'
p363
I0
sS'1253'
p364
I0
sS'1250'
p365
I0
sS'1251'
p366
I0
sS'1258'
p367
I0
sS'1259'
p368
I0
sS'1188'
p369
I0
sS'1189'
p370
I0
sS'1186'
p371
I0
sS'1187'
p372
I0
sS'1184'
p373
I0
sS'1185'
p374
I0
sS'1182'
p375
I0
sS'1183'
p376
I0
sS'1180'
p377
I0
sS'1181'
p378
I0
sS'1748'
p379
I0
sS'1749'
p380
I0
sS'1164'
p381
I0
sS'1165'
p382
I0
sS'1166'
p383
I0
sS'1167'
p384
I0
sS'1160'
p385
I0
sS'1208'
p386
I0
sS'1162'
p387
I0
sS'1163'
p388
I0
sS'1205'
p389
I0
sS'1204'
p390
I0
sS'1207'
p391
I0
sS'1206'
p392
I0
sS'1168'
p393
I0
sS'1169'
p394
I0
sS'1203'
p395
I0
sS'1202'
p396
I0
sS'1898'
p397
I0
sS'1899'
p398
I0
sS'1894'
p399
I0
sS'1895'
p400
I0
sS'1896'
p401
I0
sS'1897'
p402
I0
sS'1890'
p403
I0
sS'1891'
p404
I0
sS'1892'
p405
I0
sS'1893'
p406
I0
sS'1111'
p407
I0
sS'1110'
p408
I0
sS'1298'
p409
I0
sS'1299'
p410
I0
sS'1115'
p411
I0
sS'1114'
p412
I0
sS'1117'
p413
I0
sS'1116'
p414
I0
sS'1292'
p415
I0
sS'1293'
p416
I0
sS'1290'
p417
I0
sS'1291'
p418
I0
sS'1296'
p419
I0
sS'1297'
p420
I0
sS'1294'
p421
I0
sS'1295'
p422
I0
sS'1807'
p423
I0
sS'1806'
p424
I0
sS'1805'
p425
I0
sS'1804'
p426
I0
sS'1803'
p427
I0
sS'1802'
p428
I0
sS'1801'
p429
I0
sS'1800'
p430
I0
sS'1809'
p431
I0
sS'1808'
p432
I0
s.'1113'
p433
I0
sS'1773'
p434
I0
sS'1226'
p435
I0
sS'1866'
p436
I0
sS'1972'
p437
I0
sS'1971'
p438
I0
sS'1929'
p439
I0
sS'1970'
p440
I0
sS'1968'
p441
I0
sS'1969'
p442
I0
sS'1618'
p443
I0
sS'1473'
p444
I0
sS'1616'
p445
I0
sS'1617'
p446
I0
sS'1614'
p447
I0
sS'1615'
p448
I0
sS'1612'
p449
I0
sS'1579'
p450
I0
sS'1610'
p451
I0
sS'1611'
p452
I0
sS'1578'
p453
I0
sS'1824'
p454
I0
sS'1475'
p455
I0
sS'1730'
p456
I0
sS'1571'
p457
I0
sS'1043'
p458
I0
sS'1042'
p459
I0
sS'1041'
p460
I0
sS'1040'
p461
I0
sS'1047'
p462
I0
sS'1046'
p463
I0
sS'1045'
p464
I0
sS'1044'
p465
I0
sS'1049'
p466
I0
sS'1048'
p467
I0
sS'1681'
p468
I0
sS'1680'
p469
I0
sS'1683'
p470
I0
sS'1682'
p471
I0
sS'1685'
p472
I0
sS'1684'
p473
I0
sS'1687'
p474
I0
sS'1686'
p475
I0
sS'1689'
p476
I0
sS'1688'
p477
I0
sS'1760'
p478
I0
sS'1761'
p479
I0
sS'1766'
p480
I0
sS'1767'
p481
I0
sS'1764'
p482
I0
sS'1765'
p483
I0
sS'1142'
p484
I0
sS'1143'
p485
I0
sS'1140'
p486
I0
sS'1141'
p487
I0
sS'1146'
p488
I0
sS'1147'
p489
I0
sS'1144'
p490
I0
sS'1145'
p491
I0
sS'1263'
p492
I0
sS'1262'
p493
I0
sS'1148'
p494
I0
sS'1260'
p495
I0
sS'1267'
p496
I0
sS'1266'
p497
I0
sS'1265'
p498
I0
sS'1264'
p499
I0
sS'1546'
p500
I0
sS'1547'
p501
I0
sS'1544'
p502
I0
sS'1545'
p503
I0
sS'1542'
p504
I0
sS'1543'
p505
I0
sS'1540'
p506
I0
sS'1541'
p507
I0
sS'1548'
p508
I0
sS'1549'
p509
I0
sS'1518'
p510
I0
sS'1469'
p511
I0
sS'1468'
p512
I0
sS'1465'
p513
I0
sS'1464'
p514
I0
sS'1467'
p515
I0
sS'1466'
p516
I0
sS'1461'
p517
I0
sS'1460'
p518
I0
sS'1463'
p519
I0
sS'1462'
p520
I0
sS'1317'
p521
I0
sS'1316'
p522
I0
sS'1315'
p523
I0
sS'1314'
p524
I0
sS'1313'
p525
I0
sS'1312'
p526
I0
sS'1311'
p527
I0
sS'1310'
p528
I0
sS'1319'
p529
I0
sS'1318'
p530
I0
sS'1403'
p531
I0
sS'1402'
p532
I0
sS'1787'
p533
I0
sS'1401'
p534
I0
sS'1400'
p535
I0
sS'1829'
p536
I0
sS'1023'
p537
I0
sS'1825'
p538
I0
sS'1407'
p539
I0
sS'1827'
p540
I0
sS'1022'
p541
I0
sS'1821'
p542
I0
sS'1820'
p543
I0
sS'1823'
p544
I0
sS'1406'
p545
I0
sS'1388'
p546
I0
sS'1389'
p547
I0
sS'1384'
p548
I0
sS'1385'
p549
I0
sS'1386'
p550
I0
sS'1387'
p551
I0
sS'1380'
p552
I0
sS'1381'
p553
I0
sS'1382'
p554
I0
sS'1383'
p555
I0
sS'1029'
p556
I0
sS'1947'
p557
I0
sS'1028'
p558
I0
sS'1920'
p559
I0
sS'1921'
p560
I0
sS'1922'
p561
I0
sS'1923'
p562
I0
sS'1924'
p563
I0
sS'1925'
p564
I0
sS'1926'
p565
I0
sS'1927'
p566
I0
sS'1928'
p567
I0
sS'1339'
p568
I0
sS'1231'
p569
I0
sS'1741'
p570
I0
sS'1619'
p571
I0
sS'1774'
p572
I0
sS'1238'
p573
I0
sS'1679'
p574
I0
sS'1239'
p575
I0
sS'1822'
p576
I0
sS'1645'
p577
I0
sS'1644'
p578
I0
sS'1647'
p579
I0
sS'1646'
p580
I0
sS'1641'
p581
I0
sS'1640'
p582
I0
sS'1643'
p583
I0
sS'1642'
p584
I0
sS'1726'
p585
I0
sS'1727'
p586
I0
sS'1724'
p587
I0
sS'1725'
p588
I0
sS'1649'
p589
I0
sS'1648'
p590
I0
sS'1720'
p591
I0
sS'1721'
p592
I0
sS'1779'
p593
I0
sS'1778'
p594
I0
sS'1160'
p595
I0
sS'1161'
p596
I0
sS'1421'
p597
I0
sS'1420'
p598
I0
sS'1423'
p599
I0
sS'1422'
p600
I0
sS'1425'
p601
I0
sS'1424'
p602
I0
sS'1427'
p603
I0
sS'1426'
p604
I0
sS'1429'
p605
I0
sS'1428'
p606
I0
sS'1580'
p607
I0
sS'1581'
p608
I0
sS'1586'
p609
I0
sS'1587'
p610
I0
sS'1584'
p611
I0
sS'1585'
p612
I0
sS'1038'
p613
I0
sS'1039'
p614
I0
sS'1032'
p615
I0
sS'1033'
p616
I0
sS'1030'
p617
I0
sS'1031'
p618
I0
sS'1036'
p619
I0
sS'1037'
p620
I0
sS'1034'
p621
I0
sS'1035'
p622
I0
sS'1212'
p623
I0
sS'1213'
p624
I0
sS'1210'
p625
I0
sS'1211'
p626
I0
sS'1216'
p627
I0
sS'1217'
p628
I0
sS'1214'
p629
I0
sS'1215'
p630
I0
sS'1353'
p631
I0
sS'1168'
p632
I0
sS'1218'
p633
I0
sS'1219'
p634
I0
sS'1357'
p635
I0
sS'1356'
p636
I0
sS'1355'
p637
I0
sS'1200'
p638
I0
sS'1861'
p639
I0
sS'1860'
p640
I0
sS'1863'
p641
I0
sS'1862'
p642
I0
sS'1865'
p643
I0
sS'1864'
p644
I0
sS'1867'
p645
I0
sS'1675'
p646
I0
sS'1869'
p647
I0
sS'1868'
p648
I0
sS'1728'
p649
I0
sS'1129'
p650
I0
sS'1729'
p651
I0
sS'1106'
p652
I0
sS'1107'
p653
I0
sS'1104'
p654
I0
sS'1105'
p655
I0
sS'1102'
p656
I0
sS'1103'
p657
I0
sS'1100'
p658
I0
sS'1101'
p659
I0
sS'1515'
p660
I0
sS'1514'
p661
I0
sS'1517'
p662
I0
sS'1516'
p663
I0
sS'1458'
p664
I0
sS'1459'
p665
I0
sS'1108'
p666
I0
sS'1109'
p667
I0
sS'1903'
p668
I0
sS'1722'
p669
I0
sS'1723'
p670
I0
sS'1159'
p671
I0
sS'1844'
p672
I0
sS'1734'
p673
I0
sS'1158'
p674
I0
sS'1814'
p675
I0
sS'1537'
p676
I0
sS'1816'
p677
I0
sS'1817'
p678
I0
sS'1810'
p679
I0
sS'1811'
p680
I0
sS'1812'
p681
I0
sS'1536'
p682
I0
sS'1818'
p683
I0
sS'1535'
p684
I0
sS'1534'
p685
I0
sS'1533'
p686
I0
sS'1532'
p687
I0
sS'1531'
p688
I0
sS'1151'
p689
I0
sS'1530'
p690
I0
sS'1150'
p691
I0
sS'1199'
p692
I0
sS'1609'
p693
I0
sS'1608'
p694
I0
sS'1601'
p695
I0
sS'1600'
p696
I0
sS'1603'
p697
I0
sS'1602'
p698
I0
sS'1605'
p699
I0
sS'1604'
p700
I0
sS'1607'
p701
I0
sS'1606'
p702
I0
sS'1964'
p703
I0
sS'1965'
p704
I0
sS'1966'
p705
I0
sS'1950'
p706
I0
sS'1788'
p707
I0
sS'1789'
p708
I0
sS'1967'
p709
I0
sS'1780'
p710
I0
sS'1781'
p711
I0
sS'1782'
p712
I0
sS'1783'
p713
I0
sS'1784'
p714
I0
sS'1785'
p715
I0
sS'1786'
p716
I0
sS'1613'
p717
I0
sS'1962'
p718
I0
sS'1673'
p719
I0
sS'1963'
p720
I0
sS'1775'
p721
I0
sS'1447'
p722
I0
sS'1777'
p723
I0
sS'1776'
p724
I0
sS'1771'
p725
I0
sS'1770'
p726
I0
sS'1078'
p727
I0
sS'1079'
p728
I0
sS'1076'
p729
I0
sS'1077'
p730
I0
sS'1074'
p731
I0
sS'1075'
p732
I0
sS'1072'
p733
I0
sS'1073'
p734
I0
sS'1070'
p735
I0
sS'1071'
p736
I0
sS'1112'
p737
I0
sS'1678'
p738
I0
sS'1561'
p739
I0
sS'1674'
p740
I0
sS'1443'
p741
I0
sS'1676'
p742
I0
sS'1677'
p743
I0
sS'1670'
p744
I0
sS'1671'
p745
I0
sS'1672'
p746
I0
sS'1442'
p747
I0
sS'1094'
p748
I0
sS'1095'
p749
I0
sS'1096'
p750
I0
sS'1097'
p751
I0
sS'1090'
p752
I0
sS'1091'
p753
I0
sS'1092'
p754
I0
sS'1093'
p755
I0
sS'1155'
p756
I0
sS'1154'
p757
I0
sS'1157'
p758
I0
sS'1156'
p759
I0
sS'1098'
p760
I0
sS'1099'
p761
I0
sS'1153'
p762
I0
sS'1152'
p763
I0
sS'1835'
p764
I0
sS'1119'
p765
I0
sS'1118'
p766
I0
sS'1562'
p767
I0
sS'1551'
p768
I0
sS'1550'
p769
I0
sS'1553'
p770
I0
sS'1552'
p771
I0
sS'1555'
p772
I0
sS'1554'
p773
I0
sS'1557'
p774
I0
sS'1556'
p775
I0
sS'1559'
p776
I0
sS'1558'
p777
I0
sS'1565'
p778
I0
sS'1418'
p779
I0
sS'1419'
p780
I0
sS'1449'
p781
I0
sS'1410'
p782
I0
sS'1411'
p783
I0
sS'1412'
p784
I0
sS'1413'
p785
I0
sS'1414'
p786
I0
sS'1415'
p787
I0
sS'1416'
p788
I0
sS'1417'
p789
I0
sS'1322'
p790
I0
sS'1323'
p791
I0
sS'1320'
p792
I0
sS'1321'
p793
I0
sS'1326'
p794
I0
sS'1327'
p795
I0
sS'1324'
p796
I0
sS'1325'
p797
I0
sS'1328'
p798
I0
sS'1329'
p799
I0
sS'1790'
p800
I0
sS'1769'
p801
I0
sS'1858'
p802
I0
sS'1859'
p803
I0
sS'1568'
p804
I0
sS'1850'
p805
I0
sS'1851'
p806
I0
sS'1852'
p807
I0
sS'1853'
p808
I0
sS'1854'
p809
I0
sS'1855'
p810
I0
sS'1856'
p811
I0
sS'1857'
p812
I0
sS'1256'
p813
I0
sS'1257'
p814
I0
sS'1254'
p815
I0
sS'1255'
p816
I0
sS'1252'
p817
I0
sS'1253'
p818
I0
sS'1250'
p819
I0
sS'1251'
p820
I0
sS'1397'
p821
I0
sS'1396'
p822
I0
sS'1395'
p823
I0
sS'1394'
p824
I0
sS'1393'
p825
I0
sS'1392'
p826
I0
sS'1258'
p827
I0
sS'1259'
p828
I0
sS'1569'
p829
I0
sS'1916'
p830
I0
sS'1588'
p831
I0
sS'1933'
p832
I0
sS'1932'
p833
I0
sS'1931'
p834
I0
sS'1589'
p835
I0
sS'1937'
p836
I0
sS'1936'
p837
I0
sS'1935'
p838
I0
sS'1934'
p839
I0
sS'1939'
p840
I0
sS'1842'
p841
I0
sS'1763'
p842
I0
sS'1582'
p843
I0
sS'1583'
p844
I0
sS'1570'
p845
I0
sS'1405'
p846
I0
sS'1630'
p847
I0
sS'1631'
p848
I0
sS'1632'
p849
I0
sS'1633'
p850
I0
sS'1634'
p851
I0
sS'1635'
p852
I0
sS'1636'
p853
I0
sS'1637'
p854
I0
sS'1638'
p855
I0
sS'1639'
p856
I0
sS'1733'
p857
I0
sS'1732'
p858
I0
sS'1735'
p859
I0
sS'1404'
p860
I0
sS'1737'
p861
I0
sS'1736'
p862
I0
sS'1446'
p863
I0
sS'1595'
p864
I0
sS'1594'
p865
I0
sS'1597'
p866
I0
sS'1596'
p867
I0
sS'1591'
p868
I0
sS'1590'
p869
I0
sS'1593'
p870
I0
sS'1592'
p871
I0
sS'1599'
p872
I0
sS'1598'
p873
I0
sS'1445'
p874
I0
sS'1025'
p875
I0
sS'1024'
p876
I0
sS'1027'
p877
I0
sS'1026'
p878
I0
sS'1021'
p879
I0
sS'1020'
p880
I0
sS'1188'
p881
I0
sS'1189'
p882
I0
sS'1186'
p883
I0
sS'1187'
p884
I0
sS'1184'
p885
I0
sS'1185'
p886
I0
sS'1182'
p887
I0
sS'1183'
p888
I0
sS'1180'
p889
I0
sS'1181'
p890
I0
sS'1349'
p891
I0
sS'1748'
p892
I0
sS'1749'
p893
I0
sS'1744'
p894
I0
sS'1745'
p895
I0
sS'1746'
p896
I0
sS'1747'
p897
I0
sS'1740'
p898
I0
sS'1444'
p899
I0
sS'1742'
p900
I0
sS'1743'
p901
I0
sS'1164'
p902
I0
sS'1165'
p903
I0
sS'1166'
p904
I0
sS'1167'
p905
I0
sS'1209'
p906
I0
sS'1208'
p907
I0
sS'1162'
p908
I0
sS'1163'
p909
I0
sS'1205'
p910
I0
sS'1204'
p911
I0
sS'1207'
p912
I0
sS'1206'
p913
I0
sS'1201'
p914
I0
sS'1169'
p915
I0
sS'1203'
p916
I0
sS'1202'
p917
I0
sS'1358'
p918
I0
sS'1898'
p919
I0
sS'1899'
p920
I0
sS'1894'
p921
I0
sS'1895'
p922
I0
sS'1896'
p923
I0
sS'1897'
p924
I0
sS'1890'
p925
I0
sS'1891'
p926
I0
sS'1892'
p927
I0
sS'1893'
p928
I0
sS'1772'
p929
I0
sS'1768'
p930
I0
sS'1111'
p931
I0
sS'1110'
p932
I0
sS'1298'
p933
I0
sS'1299'
p934
I0
sS'1115'
p935
I0
sS'1114'
p936
I0
sS'1117'
p937
I0
sS'1116'
p938
I0
sS'1292'
p939
I0
sS'1293'
p940
I0
sS'1290'
p941
I0
sS'1291'
p942
I0
sS'1296'
p943
I0
sS'1297'
p944
I0
sS'1294'
p945
I0
sS'1295'
p946
I0
sS'1350'
p947
I0
sS'1762'
p948
I0
sS'1441'
p949
I0
sS'1354'
p950
I0
sS'1807'
p951
I0
sS'1806'
p952
I0
sS'1805'
p953
I0
sS'1804'
p954
I0
sS'1803'
p955
I0
sS'1802'
p956
I0
sS'1801'
p957
I0
sS'1800'
p958
I0
sS'1563'
p959
I0
sS'1809'
p960
I0
sS'1808'
p961
I0
sS'1366'
p962
I0
sS'1367'
p963
I0
sS'1364'
p964
I0
sS'1365'
p965
I0
sS'1362'
p966
I0
sS'1363'
p967
I0
sS'1360'
p968
I0
sS'1361'
p969
I0
sS'1930'
p970
I0
sS'1368'
p971
I0
sS'1369'
p972
I0
s.