(dp0
S'2180'
p1
I1
sS'2012'
p2
I0
sS'2184'
p3
I1
sS'2241'
p4
I0
sS'2095'
p5
I0
sS'2094'
p6
I0
sS'2097'
p7
I0
sS'2096'
p8
I0
sS'2091'
p9
I0
sS'2121'
p10
I0
sS'2093'
p11
I0
sS'2092'
p12
I0
sS'2139'
p13
I0
sS'2099'
p14
I0
sS'2098'
p15
I0
sS'2041'
p16
I0
sS'2323'
p17
I0
sS'2322'
p18
I0
sS'2321'
p19
I0
sS'2320'
p20
I0
sS'2327'
p21
I0
sS'2326'
p22
I0
sS'2325'
p23
I0
sS'2324'
p24
I0
sS'2329'
p25
I0
sS'2328'
p26
I0
sS'2268'
p27
I0
sS'2154'
p28
I0
sS'2155'
p29
I0
sS'2156'
p30
I0
sS'2078'
p31
I0
sS'2248'
p32
I0
sS'2018'
p33
I0
sS'2152'
p34
I0
sS'2153'
p35
I0
sS'2244'
p36
I0
sS'2245'
p37
I0
sS'2246'
p38
I0
sS'2247'
p39
I0
sS'2158'
p40
I0
sS'2159'
p41
I0
sS'2013'
p42
I0
sS'2243'
p43
I0
sS'2212'
p44
I1
sS'2242'
p45
I0
sS'2073'
p46
I0
sS'2210'
p47
I1
sS'2072'
p48
I0
sS'2010'
p49
I0
sS'2071'
p50
I0
sS'2120'
p51
I0
sS'2179'
p52
I1
sS'2270'
p53
I0
sS'2318'
p54
I0
sS'2319'
p55
I0
sS'2316'
p56
I0
sS'2317'
p57
I0
sS'2314'
p58
I0
sS'2315'
p59
I0
sS'2312'
p60
I0
sS'2313'
p61
I0
sS'2310'
p62
I0
sS'2311'
p63
I0
sS'2068'
p64
I0
sS'2146'
p65
I0
sS'2145'
p66
I0
sS'2144'
p67
I0
sS'2143'
p68
I0
sS'2171'
p69
I1
sS'2141'
p70
I0
sS'2140'
p71
I0
sS'2060'
p72
I0
sS'2256'
p73
I0
sS'2062'
p74
I0
sS'2254'
p75
I0
sS'2253'
p76
I0
sS'2065'
p77
I0
sS'2066'
p78
I0
sS'2090'
p79
I0
sS'2082'
p80
I0
sS'2204'
p81
I1
sS'2147'
p82
I0
sS'2231'
p83
I0
sS'2119'
p84
I0
sS'2309'
p85
I0
sS'2308'
p86
I0
sS'2083'
p87
I0
sS'2149'
p88
I0
sS'2069'
p89
I0
sS'2301'
p90
I0
sS'2300'
p91
I0
sS'2303'
p92
I0
sS'2302'
p93
I0
sS'2305'
p94
I0
sS'2304'
p95
I0
sS'2307'
p96
I0
sS'2306'
p97
I0
sS'2172'
p98
I1
sS'2173'
p99
I1
sS'2170'
p100
I1
sS'2269'
p101
I0
sS'2176'
p102
I1
sS'2177'
p103
I1
sS'2174'
p104
I1
sS'2175'
p105
I1
sS'2262'
p106
I0
sS'2263'
p107
I0
sS'2178'
p108
I1
sS'2261'
p109
I0
sS'2077'
p110
I0
sS'2076'
p111
I0
sS'2075'
p112
I0
sS'2074'
p113
I0
sS'2288'
p114
I0
sS'2289'
p115
I0
sS'2283'
p116
I0
sS'2259'
p117
I0
sS'2050'
p118
I0
sS'2280'
p119
I0
sS'2281'
p120
I0
sS'2282'
p121
I0
sS'2258'
p122
I0
sS'2284'
p123
I0
sS'2202'
p124
I1
sS'2286'
p125
I0
sS'2285'
p126
I0
sS'2257'
p127
I0
sS'2203'
p128
I1
sS'2061'
p129
I0
sS'2028'
p130
I0
sS'2287'
p131
I0
sS'2255'
p132
I0
sS'2205'
p133
I1
sS'2046'
p134
I0
sS'2274'
p135
I0
sS'2044'
p136
I0
sS'2045'
p137
I0
sS'2271'
p138
I0
sS'2043'
p139
I0
sS'2040'
p140
I0
sS'2272'
p141
I0
sS'2064'
p142
I0
sS'2207'
p143
I1
sS'2279'
p144
I0
sS'2278'
p145
I0
sS'2048'
p146
I0
sS'2106'
p147
I0
sS'2059'
p148
I0
sS'2169'
p149
I1
sS'2168'
p150
I1
sS'2058'
p151
I0
sS'2266'
p152
I0
sS'2164'
p153
I1
sS'2167'
p154
I1
sS'2166'
p155
I1
sS'2161'
p156
I0
sS'2160'
p157
I0
sS'2163'
p158
I1
sS'2162'
p159
I1
sS'2117'
p160
I0
sS'2299'
p161
I0
sS'2298'
p162
I0
sS'2293'
p163
I0
sS'2292'
p164
I0
sS'2291'
p165
I0
sS'2290'
p166
I0
sS'2297'
p167
I0
sS'2296'
p168
I0
sS'2295'
p169
I0
sS'2294'
p170
I0
sS'2190'
p171
I1
sS'2191'
p172
I1
sS'2192'
p173
I1
sS'2193'
p174
I1
sS'2194'
p175
I1
sS'2195'
p176
I1
sS'2196'
p177
I1
sS'2197'
p178
I1
sS'2198'
p179
I1
sS'2199'
p180
I1
sS'2249'
p181
I0
sS'2142'
p182
I0
sS'2051'
p183
I0
sS'2201'
p184
I1
sS'2053'
p185
I0
sS'2052'
p186
I0
sS'2055'
p187
I0
sS'2054'
p188
I0
sS'2057'
p189
I0
sS'2056'
p190
I0
sS'2208'
p191
I1
sS'2209'
p192
I1
sS'2108'
p193
I0
sS'2118'
p194
I0
sS'2267'
p195
I0
sS'2157'
p196
I0
sS'2110'
p197
I0
sS'2111'
p198
I0
sS'2112'
p199
I0
sS'2113'
p200
I0
sS'2114'
p201
I0
sS'2115'
p202
I0
sS'2116'
p203
I0
sS'2151'
p204
I0
sS'2275'
p205
I0
sS'2085'
p206
I0
sS'2047'
p207
I0
sS'2237'
p208
I0
sS'2088'
p209
I0
sS'2264'
p210
I0
sS'2183'
p211
I1
sS'2015'
p212
I0
sS'2273'
p213
I0
sS'2089'
p214
I0
sS'2187'
p215
I1
sS'2186'
p216
I1
sS'2185'
p217
I1
sS'2014'
p218
I0
sS'2042'
p219
I0
sS'2189'
p220
I1
sS'2188'
p221
I1
sS'2017'
p222
I0
sS'2124'
p223
I0
sS'2213'
p224
I1
sS'2070'
p225
I0
sS'2211'
p226
I1
sS'2016'
p227
I0
sS'2217'
p228
I1
sS'2216'
p229
I1
sS'2215'
p230
I1
sS'2214'
p231
I1
sS'2011'
p232
I0
sS'2219'
p233
I1
sS'2218'
p234
I1
sS'2265'
p235
I0
sS'2220'
p236
I1
sS'2150'
p237
I0
sS'2024'
p238
I0
sS'2025'
p239
I0
sS'2109'
p240
I0
sS'2027'
p241
I0
sS'2020'
p242
I0
sS'2021'
p243
I0
sS'2022'
p244
I0
sS'2023'
p245
I0
sS'2103'
p246
I0
sS'2102'
p247
I0
sS'2101'
p248
I0
sS'2100'
p249
I0
sS'2107'
p250
I0
sS'2233'
p251
I0
sS'2105'
p252
I0
sS'2104'
p253
I0
sS'2081'
p254
I0
sS'2131'
p255
I0
sS'2086'
p256
I0
sS'2234'
p257
I0
sS'2200'
p258
I1
sS'2148'
p259
I0
sS'2236'
p260
I0
sS'2277'
p261
I0
sS'2049'
p262
I0
sS'2252'
p263
I0
sS'2136'
p264
I0
sS'2137'
p265
I0
sS'2134'
p266
I0
sS'2206'
p267
I1
sS'2132'
p268
I0
sS'2133'
p269
I0
sS'2228'
p270
I0
sS'2229'
p271
I0
sS'2226'
p272
I0
sS'2227'
p273
I0
sS'2224'
p274
I1
sS'2225'
p275
I1
sS'2222'
p276
I1
sS'2223'
p277
I1
sS'2138'
p278
I0
sS'2221'
p279
I1
sS'2037'
p280
I0
sS'2036'
p281
I0
sS'2035'
p282
I0
sS'2034'
p283
I0
sS'2033'
p284
I0
sS'2032'
p285
I0
sS'2031'
p286
I0
sS'2030'
p287
I0
sS'2063'
p288
I0
sS'2251'
p289
I0
sS'2039'
p290
I0
sS'2038'
p291
I0
sS'2126'
p292
I0
sS'2029'
p293
I0
sS'2067'
p294
I0
sS'2260'
p295
I0
sS'2128'
p296
I0
sS'2165'
p297
I1
sS'2135'
p298
I0
sS'2079'
p299
I0
sS'2250'
p300
I0
sS'2181'
p301
I1
sS'2239'
p302
I0
sS'2238'
p303
I0
sS'2123'
p304
I0
sS'2122'
p305
I0
sS'2125'
p306
I0
sS'2130'
p307
I0
sS'2127'
p308
I0
sS'2182'
p309
I1
sS'2129'
p310
I0
sS'2230'
p311
I0
sS'2080'
p312
I0
sS'2232'
p313
I0
sS'2235'
p314
I0
sS'2087'
p315
I0
sS'2084'
p316
I0
sS'2240'
p317
I0
sS'2002'
p318
I0
sS'2003'
p319
I0
sS'2019'
p320
I0
sS'2001'
p321
I0
sS'2006'
p322
I0
sS'2007'
p323
I0
sS'2004'
p324
I0
sS'2005'
p325
I0
sS'2008'
p326
I0
sS'2009'
p327
I0
sS'2276'
p328
I0
sS'2026'
p329
I0
s.