(dp0
S'1377185051303'
p1
I0
sS'1377185051253'
p2
I0
sS'1377185038804'
p3
I0
sS'1377185046203'
p4
I0
sS'1377185039004'
p5
I0
sS'1377185048853'
p6
I0
sS'1377185031904'
p7
I0
sS'1377185037554'
p8
I0
sS'1377185045303'
p9
I0
sS'1377185044303'
p10
I0
sS'1377185047903'
p11
I0
sS'1377185040704'
p12
I0
sS'1377185033754'
p13
I0
sS'1377185033204'
p14
I0
sS'1377185048553'
p15
I0
sS'1377185051553'
p16
I0
sS'1377185048253'
p17
I0
sS'1377185051653'
p18
I0
sS'1377185034904'
p19
I0
sS'1377185050703'
p20
I0
sS'1377185050253'
p21
I0
sS'1377185042703'
p22
I0
sS'1377185035504'
p23
I0
sS'1377185033054'
p24
I0
sS'1377185041004'
p25
I0
sS'1377185044903'
p26
I0
sS'1377185037304'
p27
I0
sS'1377185032904'
p28
I0
sS'1377185042403'
p29
I0
sS'1377185050953'
p30
I0
sS'1377185035604'
p31
I0
sS'1377185033504'
p32
I0
sS'1377185032054'
p33
I0
sS'1377185032754'
p34
I0
sS'1377185036804'
p35
I0
sS'1377185031154'
p36
I0
sS'1377185031404'
p37
I0
sS'1377185041504'
p38
I0
sS'1377185048403'
p39
I0
sS'1377185033804'
p40
I0
sS'1377185037754'
p41
I0
sS'1377185040104'
p42
I0
sS'1377185037054'
p43
I0
sS'1377185050103'
p44
I0
sS'1377185031654'
p45
I0
sS'1377185044603'
p46
I0
sS'1377185047603'
p47
I0
sS'1377185030654'
p48
I0
sS'1377185030304'
p49
I0
sS'1377185040204'
p50
I0
sS'1377185031304'
p51
I0
sS'1377185033654'
p52
I0
sS'1377185051153'
p53
I0
sS'1377185047803'
p54
I0
sS'1377185041603'
p55
I0
sS'1377185035804'
p56
I0
sS'1377185048353'
p57
I0
sS'1377185044503'
p58
I0
sS'1377185047303'
p59
I0
sS'1377185030404'
p60
I0
sS'1377185030154'
p61
I0
sS'1377185035654'
p62
I0
sS'1377185042453'
p63
I0
sS'1377185039904'
p64
I0
sS'1377185034254'
p65
I0
sS'1377185034704'
p66
I0
sS'1377185043103'
p67
I0
sS'1377185043453'
p68
I0
sS'1377185046303'
p69
I0
sS'1377185033154'
p70
I0
sS'1377185033254'
p71
I0
sS'1377185049703'
p72
I0
sS'1377185032304'
p73
I0
sS'1377185048503'
p74
I0
sS'1377185051503'
p75
I0
sS'1377185036054'
p76
I0
sS'1377185043853'
p77
I0
sS'1377185036504'
p78
I0
sS'1377185046803'
p79
I0
sS'1377185037904'
p80
I0
sS'1377185038154'
p81
I0
sS'1377185031054'
p82
I0
sS'1377185043353'
p83
I0
sS'1377185044803'
p84
I0
sS'1377185034554'
p85
I0
sS'1377185032654'
p86
I0
sS'1377185047003'
p87
I0
sS'1377185040954'
p88
I0
sS'1377185051003'
p89
I0
sS'1377185042853'
p90
I0
sS'1377185032954'
p91
I0
sS'1377185038654'
p92
I0
sS'1377185042353'
p93
I0
sS'1377185038304'
p94
I0
sS'1377185036204'
p95
I0
sS'1377185035154'
p96
I0
sS'1377185036754'
p97
I0
sS'1377185037404'
p98
I0
sS'1377185040254'
p99
I0
sS'1377185037154'
p100
I0
sS'1377185048003'
p101
I0
sS'1377185032004'
p102
I0
sS'1377185031754'
p103
I0
sS'1377185031454'
p104
I0
sS'1377185030754'
p105
I0
sS'1377185030904'
p106
I0
sS'1377185041254'
p107
I0
sS'1377185041553'
p108
I0
sS'1377185045553'
p109
I0
sS'1377185037704'
p110
I0
sS'1377185041953'
p111
I0
sS'1377185035204'
p112
I0
sS'1377185034954'
p113
I0
sS'1377185042003'
p114
I0
sS'1377185032504'
p115
I0
sS'1377185039154'
p116
I0
sS'1377185045903'
p117
I0
sS'1377185039404'
p118
I0
sS'1377185046603'
p119
I0
sS'1377185046353'
p120
I0
sS'1377185044153'
p121
I0
sS'1377185049303'
p122
I0
sS'1377185048903'
p123
I0
sS'1377185030054'
p124
I0
sS'1377185034004'
p125
I0
sS'1377185044653'
p126
I0
sS'1377185030354'
p127
I0
sS'1377185045703'
p128
I0
sS'1377185040554'
p129
I0
sS'1377185045253'
p130
I0
sS'1377185042553'
p131
I0
sS'1377185050803'
p132
I0
sS'1377185046853'
p133
I0
sS'1377185035754'
p134
I0
sS'1377185047853'
p135
I0
sS'1377185038904'
p136
I0
sS'1377185036154'
p137
I0
sS'1377185035854'
p138
I0
sS'1377185046453'
p139
I0
sS'1377185046103'
p140
I0
sS'1377185039304'
p141
I0
sS'1377185039654'
p142
I0
sS'1377185049153'
p143
I0
sS'1377185047453'
p144
I0
sS'1377185031804'
p145
I0
sS'1377185047353'
p146
I0
sS'1377185034854'
p147
I0
sS'1377185038354'
p148
I0
sS'1377185035104'
p149
I0
sS'1377185042303'
p150
I0
sS'1377185034454'
p151
I0
sS'1377185043253'
p152
I0
sS'1377185044203'
p153
I0
sS'1377185034754'
p154
I0
sS'1377185049403'
p155
I0
sS'1377185040854'
p156
I0
sS'1377185043153'
p157
I0
sS'1377185040604'
p158
I0
sS'1377185033104'
p159
I0
sS'1377185045003'
p160
I0
sS'1377185038754'
p161
I0
sS'1377185036654'
p162
I0
sS'1377185036554'
p163
I0
sS'1377185043553'
p164
I0
sS'1377185034354'
p165
I0
sS'1377185043803'
p166
I0
sS'1377185040354'
p167
I0
sS'1377185042603'
p168
I0
sS'1377185035404'
p169
I0
sS'1377185048653'
p170
I0
sS'1377185044853'
p171
I0
sS'1377185041104'
p172
I0
sS'1377185051753'
p173
I0
sS'1377185037204'
p174
I0
sS'1377185038054'
p175
I0
sS'1377185051053'
p176
I0
sS'1377185041454'
p177
I0
sS'1377185040504'
p178
I0
sS'1377185045753'
p179
I0
sS'1377185041853'
p180
I0
sS'1377185033404'
p181
I0
sS'1377185046253'
p182
I0
sS'1377185039054'
p183
I0
sS'1377185036904'
p184
I0
sS'1377185031704'
p185
I0
sS'1377185050503'
p186
I0
sS'1377185050053'
p187
I0
sS'1377185045353'
p188
I0
sS'1377185044753'
p189
I0
sS'1377185041204'
p190
I0
sS'1377185046953'
p191
I0
sS'1377185030504'
p192
I0
sS'1377185040004'
p193
I0
sS'1377185033704'
p194
I0
sS'1377185039754'
p195
I0
sS'1377185046553'
p196
I0
sS'1377185039454'
p197
I0
sS'1377185050753'
p198
I0
sS'1377185050203'
p199
I0
sS'1377185049053'
p200
I0
sS'1377185045953'
p201
I0
sS'1377185046653'
p202
I0
sS'1377185044103'
p203
I0
sS'1377185047703'
p204
I0
sS'1377185049353'
p205
I0
sS'1377185030004'
p206
I0
sS'1377185045453'
p207
I0
sS'1377185031204'
p208
I0
sS'1377185041703'
p209
I0
sS'1377185049653'
p210
I0
sS'1377185042903'
p211
I0
sS'1377185051903'
p212
I0
sS'1377185044403'
p213
I0
sS'1377185047953'
p214
I0
sS'1377185047403'
p215
I0
sS'1377185038004'
p216
I0
sS'1377185036304'
p217
I0
sS'1377185039804'
p218
I0
sS'1377185034404'
p219
I0
sS'1377185048753'
p220
I0
sS'1377185031104'
p221
I0
sS'1377185043203'
p222
I0
sS'1377185048453'
p223
I0
sS'1377185051403'
p224
I0
sS'1377185036604'
p225
I0
sS'1377185032854'
p226
I0
sS'1377185037804'
p227
I0
sS'1377185050153'
p228
I0
sS'1377185048153'
p229
I0
sS'1377185049803'
p230
I0
sS'1377185047103'
p231
I0
sS'1377185030604'
p232
I0
sS'1377185050403'
p233
I0
sS'1377185051703'
p234
I0
sS'1377185049853'
p235
I0
sS'1377185045403'
p236
I0
sS'1377185033354'
p237
I0
sS'1377185033454'
p238
I0
sS'1377185049903'
p239
I0
sS'1377185041803'
p240
I0
sS'1377185032454'
p241
I0
sS'1377185032104'
p242
I0
sS'1377185050653'
p243
I0
sS'1377185045853'
p244
I0
sS'1377185050453'
p245
I0
sS'1377185050553'
p246
I0
sS'1377185033854'
p247
I0
sS'1377185043403'
p248
I0
sS'1377185030254'
p249
I0
sS'1377185034204'
p250
I0
sS'1377185030554'
p251
I0
sS'1377185049753'
p252
I0
sS'1377185051203'
p253
I0
sS'1377185032354'
p254
I0
sS'1377185039704'
p255
I0
sS'1377185038504'
p256
I0
sS'1377185036004'
p257
I0
sS'1377185046503'
p258
I0
sS'1377185031954'
p259
I0
sS'1377185049003'
p260
I0
sS'1377185048803'
p261
I0
sS'1377185043703'
p262
I0
sS'1377185034104'
p263
I0
sS'1377185032604'
p264
I0
sS'1377185050903'
p265
I0
sS'1377185031554'
p266
I0
sS'1377185031254'
p267
I0
sS'1377185040904'
p268
I0
sS'1377185050303'
p269
I0
sS'1377185046003'
p270
I0
sS'1377185039204'
p271
I0
sS'1377185038604'
p272
I0
sS'1377185048053'
p273
I0
sS'1377185036454'
p274
I0
sS'1377185035554'
p275
I0
sS'1377185036354'
p276
I0
sS'1377185035004'
p277
I0
sS'1377185042203'
p278
I0
sS'1377185042753'
p279
I0
sS'1377185049503'
p280
I0
sS'1377185048703'
p281
I0
sS'1377185030954'
p282
I0
sS'1377185033004'
p283
I0
sS'1377185045103'
p284
I0
sS'1377185037354'
p285
I0
sS'1377185037604'
p286
I0
sS'1377185035954'
p287
I0
sS'1377185032804'
p288
I0
sS'1377185032554'
p289
I0
sS'1377185042053'
p290
I0
sS'1377185037854'
p291
I0
sS'1377185035254'
p292
I0
sS'1377185033554'
p293
I0
sS'1377185036854'
p294
I0
sS'1377185039104'
p295
I0
sS'1377185043903'
p296
I0
sS'1377185045203'
p297
I0
sS'1377185033954'
p298
I0
sS'1377185037104'
p299
I0
sS'1377185037454'
p300
I0
sS'1377185030104'
p301
I0
sS'1377185034154'
p302
I0
sS'1377185043753'
p303
I0
sS'1377185040154'
p304
I0
sS'1377185040404'
p305
I0
sS'1377185030454'
p306
I0
sS'1377185033304'
p307
I0
sS'1377185032254'
p308
I0
sS'1377185038954'
p309
I0
sS'1377185032154'
p310
I0
sS'1377185031854'
p311
I0
sS'1377185031604'
p312
I0
sS'1377185034804'
p313
I0
sS'1377185050603'
p314
I0
sS'1377185044253'
p315
I0
sS'1377185030204'
p316
I0
sS'1377185040654'
p317
I0
sS'1377185031354'
p318
I0
sS'1377185033604'
p319
I0
sS'1377185041304'
p320
I0
sS'1377185041653'
p321
I0
sS'1377185038254'
p322
I0
sS'1377185038554'
p323
I0
sS'1377185042503'
p324
I0
sS'1377185035704'
p325
I0
sS'1377185043053'
p326
I0
sS'1377185044003'
p327
I0
sS'1377185034654'
p328
I0
sS'1377185044553'
p329
I0
sS'1377185036704'
p330
I0
sS'1377185039954'
p331
I0
sS'1377185036254'
p332
I0
sS'1377185047253'
p333
I0
sS'1377185031504'
p334
I0
sS'1377185048303'
p335
I0
sS'1377185038404'
p336
I0
sS'1377185030854'
p337
I0
sS'1377185037254'
p338
I0
sS'1377185041404'
p339
I0
sS'1377185041154'
p340
I0
sS'1377185046753'
p341
I0
sS'1377185039554'
p342
I0
sS'1377185042803'
p343
I0
sS'1377185039254'
p344
I0
sS'1377185046053'
p345
I0
sS'1377185038104'
p346
I0
sS'1377185036404'
p347
I0
sS'1377185035354'
p348
I0
sS'1377185036954'
p349
I0
sS'1377185035054'
p350
I0
sS'1377185037954'
p351
I0
sS'1377185034504'
p352
I0
sS'1377185049253'
p353
I0
sS'1377185043303'
p354
I0
sS'1377185031004'
p355
I0
sS'1377185044703'
p356
I0
sS'1377185047503'
p357
I0
sS'1377185049553'
p358
I0
sS'1377185047053'
p359
I0
sS'1377185045653'
p360
I0
sS'1377185043603'
p361
I0
sS'1377185040304'
p362
I0
sS'1377185045153'
p363
I0
sS'1377185037654'
p364
I0
sS'1377185035904'
p365
I0
sS'1377185042653'
p366
I0
sS'1377185035454'
p367
I0
sS'1377185043653'
p368
I0
sS'1377185034054'
p369
I0
sS'1377185038854'
p370
I0
sS'1377185051803'
p371
I0
sS'1377185047753'
p372
I0
sS'1377185047203'
p373
I0
sS'1377185043953'
p374
I0
sS'1377185030704'
p375
I0
sS'1377185033904'
p376
I0
sS'1377185034604'
p377
I0
sS'1377185043003'
p378
I0
sS'1377185044053'
p379
I0
sS'1377185040754'
p380
I0
sS'1377185045503'
p381
I0
sS'1377185040454'
p382
I0
sS'1377185041753'
p383
I0
sS'1377185041903'
p384
I0
sS'1377185032204'
p385
I0
sS'1377185049603'
p386
I0
sS'1377185048203'
p387
I0
sS'1377185051603'
p388
I0
sS'1377185051353'
p389
I0
sS'1377185044453'
p390
I0
sS'1377185046903'
p391
I0
sS'1377185038454'
p392
I0
sS'1377185040054'
p393
I0
sS'1377185048953'
p394
I0
sS'1377185049453'
p395
I0
sS'1377185051853'
p396
I0
sS'1377185043503'
p397
I0
sS'1377185042153'
p398
I0
sS'1377185050853'
p399
I0
sS'1377185034304'
p400
I0
sS'1377185044953'
p401
I0
sS'1377185041054'
p402
I0
sS'1377185041354'
p403
I0
sS'1377185051453'
p404
I0
sS'1377185051103'
p405
I0
sS'1377185039604'
p406
I0
sS'1377185038204'
p407
I0
sS'1377185046403'
p408
I0
sS'1377185036104'
p409
I0
sS'1377185046153'
p410
I0
sS'1377185044353'
p411
I0
sS'1377185050353'
p412
I0
sS'1377185049103'
p413
I0
sS'1377185039354'
p414
I0
sS'1377185048103'
p415
I0
sS'1377185042253'
p416
I0
sS'1377185032704'
p417
I0
sS'1377185047153'
p418
I0
sS'1377185050003'
p419
I0
sS'1377185030804'
p420
I0
sS'1377185040804'
p421
I0
sS'1377185045053'
p422
I0
sS'1377185039504'
p423
I0
sS'1377185039854'
p424
I0
sS'1377185046703'
p425
I0
sS'1377185038704'
p426
I0
sS'1377185037004'
p427
I0
sS'1377185049953'
p428
I0
sS'1377185035304'
p429
I0
sS'1377185032404'
p430
I0
sS'1377185042103'
p431
I0
sS'1377185042953'
p432
I0
sS'1377185045803'
p433
I0
sS'1377185047653'
p434
I0
sS'1377185049203'
p435
I0
sS'1377185048603'
p436
I0
sS'1377185047553'
p437
I0
sS'1377185045603'
p438
I0
sS'1377185037504'
p439
I0
s.