(dp0
S'344'
p1
I0
sS'345'
p2
I0
sS'346'
p3
I0
sS'347'
p4
I0
sS'340'
p5
I0
sS'341'
p6
I0
sS'342'
p7
I0
sS'343'
p8
I0
sS'348'
p9
I0
sS'349'
p10
I0
sS'595'
p11
I0
sS'719'
p12
I0
sS'718'
p13
I0
sS'717'
p14
I0
sS'716'
p15
I0
sS'715'
p16
I0
sS'714'
p17
I0
sS'713'
p18
I0
sS'712'
p19
I0
sS'711'
p20
I0
sS'710'
p21
I0
sS'618'
p22
I0
sS'619'
p23
I0
sS'298'
p24
I0
sS'299'
p25
I0
sS'296'
p26
I0
sS'297'
p27
I0
sS'294'
p28
I0
sS'295'
p29
I0
sS'292'
p30
I0
sS'293'
p31
I0
sS'290'
p32
I0
sS'291'
p33
I0
sS'591'
p34
I0
sS'590'
p35
I0
sS'593'
p36
I0
sS'592'
p37
I0
sS'199'
p38
I0
sS'198'
p39
I0
sS'597'
p40
I0
sS'596'
p41
I0
sS'195'
p42
I0
sS'598'
p43
I0
sS'197'
p44
I0
sS'196'
p45
I0
sS'191'
p46
I0
sS'190'
p47
I0
sS'193'
p48
I0
sS'192'
p49
I0
sS'270'
p50
I0
sS'271'
p51
I0
sS'272'
p52
I0
sS'273'
p53
I0
sS'274'
p54
I0
sS'275'
p55
I0
sS'276'
p56
I0
sS'277'
p57
I0
sS'278'
p58
I0
sS'279'
p59
I0
sS'524'
p60
I0
sS'525'
p61
I0
sS'526'
p62
I0
sS'527'
p63
I0
sS'520'
p64
I0
sS'521'
p65
I0
sS'522'
p66
I0
sS'523'
p67
I0
sS'599'
p68
I0
sS'528'
p69
I0
sS'529'
p70
I0
sS'449'
p71
I0
sS'448'
p72
I0
sS'443'
p73
I1
sS'442'
p74
I1
sS'441'
p75
I1
sS'440'
p76
I1
sS'447'
p77
I0
sS'446'
p78
I0
sS'445'
p79
I0
sS'444'
p80
I1
sS'108'
p81
I0
sS'109'
p82
I0
sS'102'
p83
I0
sS'103'
p84
I0
sS'100'
p85
I0
sS'101'
p86
I0
sS'106'
p87
I0
sS'107'
p88
I0
sS'104'
p89
I0
sS'105'
p90
I0
sS'39'
p91
I0
sS'38'
p92
I0
sS'33'
p93
I0
sS'32'
p94
I0
sS'31'
p95
I0
sS'30'
p96
I0
sS'37'
p97
I0
sS'36'
p98
I0
sS'35'
p99
I0
sS'34'
p100
I0
sS'641'
p101
I0
sS'640'
p102
I0
sS'643'
p103
I0
sS'642'
p104
I0
sS'645'
p105
I0
sS'644'
p106
I0
sS'647'
p107
I0
sS'646'
p108
I0
sS'649'
p109
I0
sS'648'
p110
I0
sS'434'
p111
I1
sS'435'
p112
I1
sS'432'
p113
I1
sS'433'
p114
I1
sS'430'
p115
I1
sS'431'
p116
I1
sS'339'
p117
I0
sS'338'
p118
I0
sS'335'
p119
I0
sS'334'
p120
I0
sS'337'
p121
I0
sS'336'
p122
I0
sS'331'
p123
I0
sS'330'
p124
I0
sS'333'
p125
I0
sS'332'
p126
I0
sS'89'
p127
I0
sS'6'
p128
I0
sS'99'
p129
I0
sS'98'
p130
I0
sS'91'
p131
I0
sS'90'
p132
I0
sS'93'
p133
I0
sS'92'
p134
I0
sS'95'
p135
I0
sS'94'
p136
I0
sS'97'
p137
I0
sS'96'
p138
I0
sS'559'
p139
I0
sS'558'
p140
I0
sS'555'
p141
I0
sS'554'
p142
I0
sS'557'
p143
I0
sS'556'
p144
I0
sS'551'
p145
I0
sS'550'
p146
I0
sS'553'
p147
I0
sS'552'
p148
I0
sS'238'
p149
I0
sS'239'
p150
I0
sS'234'
p151
I0
sS'235'
p152
I0
sS'236'
p153
I0
sS'237'
p154
I0
sS'230'
p155
I0
sS'231'
p156
I0
sS'232'
p157
I0
sS'233'
p158
I0
sS'1'
p159
I0
sS'146'
p160
I0
sS'147'
p161
I0
sS'144'
p162
I0
sS'145'
p163
I0
sS'142'
p164
I0
sS'143'
p165
I0
sS'140'
p166
I0
sS'141'
p167
I0
sS'612'
p168
I0
sS'613'
p169
I0
sS'610'
p170
I0
sS'611'
p171
I0
sS'616'
p172
I0
sS'617'
p173
I0
sS'614'
p174
I0
sS'149'
p175
I0
sS'194'
p176
I0
sS'689'
p177
I0
sS'688'
p178
I0
sS'685'
p179
I0
sS'684'
p180
I0
sS'687'
p181
I0
sS'686'
p182
I0
sS'681'
p183
I0
sS'680'
p184
I0
sS'683'
p185
I0
sS'682'
p186
I0
sS'458'
p187
I0
sS'459'
p188
I0
sS'133'
p189
I0
sS'132'
p190
I0
sS'131'
p191
I0
sS'130'
p192
I0
sS'498'
p193
I0
sS'136'
p194
I0
sS'135'
p195
I0
sS'134'
p196
I0
sS'494'
p197
I0
sS'495'
p198
I0
sS'496'
p199
I0
sS'497'
p200
I0
sS'490'
p201
I0
sS'491'
p202
I0
sS'492'
p203
I0
sS'493'
p204
I0
sS'24'
p205
I0
sS'25'
p206
I0
sS'26'
p207
I0
sS'27'
p208
I0
sS'20'
p209
I0
sS'21'
p210
I0
sS'22'
p211
I0
sS'23'
p212
I0
sS'28'
p213
I0
sS'29'
p214
I0
sS'407'
p215
I1
sS'406'
p216
I1
sS'405'
p217
I1
sS'404'
p218
I1
sS'403'
p219
I1
sS'402'
p220
I1
sS'401'
p221
I1
sS'400'
p222
I1
sS'452'
p223
I0
sS'409'
p224
I1
sS'408'
p225
I1
sS'628'
p226
I0
sS'379'
p227
I1
sS'378'
p228
I1
sS'371'
p229
I1
sS'370'
p230
I0
sS'373'
p231
I1
sS'372'
p232
I1
sS'375'
p233
I1
sS'374'
p234
I1
sS'377'
p235
I1
sS'376'
p236
I1
sS'708'
p237
I0
sS'709'
p238
I0
sS'704'
p239
I0
sS'705'
p240
I0
sS'706'
p241
I0
sS'707'
p242
I0
sS'700'
p243
I0
sS'701'
p244
I0
sS'702'
p245
I0
sS'703'
p246
I0
sS'393'
p247
I1
sS'392'
p248
I1
sS'88'
p249
I0
sS'390'
p250
I1
sS'397'
p251
I1
sS'396'
p252
I1
sS'395'
p253
I1
sS'394'
p254
I1
sS'82'
p255
I0
sS'83'
p256
I0
sS'80'
p257
I0
sS'81'
p258
I0
sS'86'
p259
I0
sS'87'
p260
I0
sS'84'
p261
I0
sS'85'
p262
I0
sS'7'
p263
I0
sS'601'
p264
I0
sS'170'
p265
I0
sS'607'
p266
I0
sS'586'
p267
I0
sS'587'
p268
I0
sS'584'
p269
I0
sS'585'
p270
I0
sS'582'
p271
I0
sS'583'
p272
I0
sS'580'
p273
I0
sS'581'
p274
I0
sS'588'
p275
I0
sS'589'
p276
I0
sS'245'
p277
I0
sS'244'
p278
I0
sS'247'
p279
I0
sS'246'
p280
I0
sS'241'
p281
I0
sS'240'
p282
I0
sS'243'
p283
I0
sS'242'
p284
I0
sS'615'
p285
I0
sS'249'
p286
I0
sS'248'
p287
I0
sS'519'
p288
I0
sS'518'
p289
I0
sS'511'
p290
I0
sS'510'
p291
I0
sS'513'
p292
I0
sS'512'
p293
I0
sS'515'
p294
I0
sS'514'
p295
I0
sS'517'
p296
I0
sS'516'
p297
I0
sS'623'
p298
I0
sS'622'
p299
I0
sS'621'
p300
I0
sS'620'
p301
I0
sS'627'
p302
I0
sS'626'
p303
I0
sS'625'
p304
I0
sS'624'
p305
I0
sS'450'
p306
I0
sS'451'
p307
I0
sS'629'
p308
I0
sS'453'
p309
I0
sS'454'
p310
I0
sS'455'
p311
I0
sS'456'
p312
I0
sS'457'
p313
I0
sS'179'
p314
I0
sS'178'
p315
I0
sS'177'
p316
I0
sS'176'
p317
I0
sS'175'
p318
I0
sS'174'
p319
I0
sS'173'
p320
I0
sS'172'
p321
I0
sS'171'
p322
I0
sS'594'
p323
I0
sS'182'
p324
I0
sS'657'
p325
I0
sS'654'
p326
I0
sS'656'
p327
I0
sS'183'
p328
I0
sS'180'
p329
I0
sS'2'
p330
I0
sS'186'
p331
I0
sS'653'
p332
I0
sS'650'
p333
I0
sS'185'
p334
I0
sS'652'
p335
I0
sS'188'
p336
I0
sS'189'
p337
I0
sS'658'
p338
I0
sS'659'
p339
I0
sS'184'
p340
I0
sS'651'
p341
I0
sS'11'
p342
I0
sS'10'
p343
I0
sS'13'
p344
I0
sS'12'
p345
I0
sS'15'
p346
I0
sS'14'
p347
I0
sS'17'
p348
I0
sS'16'
p349
I0
sS'19'
p350
I0
sS'18'
p351
I0
sS'63'
p352
I0
sS'322'
p353
I0
sS'323'
p354
I0
sS'320'
p355
I0
sS'321'
p356
I0
sS'326'
p357
I0
sS'327'
p358
I0
sS'324'
p359
I0
sS'325'
p360
I0
sS'328'
p361
I0
sS'329'
p362
I0
sS'201'
p363
I0
sS'200'
p364
I0
sS'203'
p365
I0
sS'202'
p366
I0
sS'205'
p367
I0
sS'204'
p368
I0
sS'207'
p369
I0
sS'206'
p370
I0
sS'209'
p371
I0
sS'208'
p372
I0
sS'77'
p373
I0
sS'76'
p374
I0
sS'75'
p375
I0
sS'74'
p376
I0
sS'73'
p377
I0
sS'72'
p378
I0
sS'71'
p379
I0
sS'70'
p380
I0
sS'655'
p381
I0
sS'79'
p382
I0
sS'78'
p383
I0
sS'669'
p384
I0
sS'668'
p385
I0
sS'667'
p386
I0
sS'666'
p387
I0
sS'665'
p388
I0
sS'664'
p389
I0
sS'663'
p390
I0
sS'662'
p391
I0
sS'661'
p392
I0
sS'660'
p393
I0
sS'692'
p394
I0
sS'693'
p395
I0
sS'690'
p396
I0
sS'691'
p397
I0
sS'696'
p398
I0
sS'697'
p399
I0
sS'694'
p400
I0
sS'695'
p401
I0
sS'698'
p402
I0
sS'699'
p403
I0
sS'542'
p404
I0
sS'543'
p405
I0
sS'540'
p406
I0
sS'541'
p407
I0
sS'546'
p408
I0
sS'547'
p409
I0
sS'544'
p410
I0
sS'545'
p411
I0
sS'8'
p412
I0
sS'548'
p413
I0
sS'549'
p414
I0
sS'68'
p415
I0
sS'120'
p416
I0
sS'121'
p417
I0
sS'122'
p418
I0
sS'123'
p419
I0
sS'124'
p420
I0
sS'125'
p421
I0
sS'126'
p422
I0
sS'127'
p423
I0
sS'128'
p424
I0
sS'129'
p425
I0
sS'259'
p426
I0
sS'414'
p427
I1
sS'415'
p428
I1
sS'416'
p429
I1
sS'417'
p430
I1
sS'410'
p431
I1
sS'411'
p432
I1
sS'412'
p433
I1
sS'413'
p434
I1
sS'137'
p435
I0
sS'418'
p436
I1
sS'419'
p437
I1
sS'499'
p438
I0
sS'319'
p439
I0
sS'318'
p440
I0
sS'313'
p441
I0
sS'312'
p442
I0
sS'311'
p443
I0
sS'310'
p444
I0
sS'317'
p445
I0
sS'316'
p446
I0
sS'315'
p447
I0
sS'314'
p448
I0
sS'139'
p449
I0
sS'138'
p450
I0
sS'3'
p451
I0
sS'368'
p452
I0
sS'369'
p453
I0
sS'366'
p454
I0
sS'367'
p455
I0
sS'364'
p456
I0
sS'365'
p457
I0
sS'362'
p458
I0
sS'363'
p459
I0
sS'360'
p460
I0
sS'361'
p461
I0
sS'380'
p462
I1
sS'381'
p463
I1
sS'382'
p464
I1
sS'383'
p465
I1
sS'384'
p466
I1
sS'385'
p467
I1
sS'386'
p468
I1
sS'387'
p469
I1
sS'388'
p470
I1
sS'389'
p471
I1
sS'148'
p472
I0
sS'605'
p473
I0
sS'579'
p474
I0
sS'578'
p475
I0
sS'150'
p476
I0
sS'573'
p477
I0
sS'572'
p478
I0
sS'571'
p479
I0
sS'570'
p480
I0
sS'577'
p481
I0
sS'576'
p482
I0
sS'575'
p483
I0
sS'574'
p484
I0
sS'60'
p485
I0
sS'61'
p486
I0
sS'258'
p487
I0
sS'152'
p488
I0
sS'64'
p489
I0
sS'65'
p490
I0
sS'66'
p491
I0
sS'67'
p492
I0
sS'252'
p493
I0
sS'253'
p494
I0
sS'250'
p495
I0
sS'251'
p496
I0
sS'256'
p497
I0
sS'257'
p498
I0
sS'254'
p499
I0
sS'154'
p500
I0
sS'157'
p501
I0
sS'602'
p502
I0
sS'508'
p503
I0
sS'509'
p504
I0
sS'506'
p505
I0
sS'507'
p506
I0
sS'504'
p507
I0
sS'505'
p508
I0
sS'502'
p509
I0
sS'503'
p510
I0
sS'500'
p511
I0
sS'501'
p512
I0
sS'630'
p513
I0
sS'631'
p514
I0
sS'632'
p515
I0
sS'633'
p516
I0
sS'634'
p517
I0
sS'635'
p518
I0
sS'636'
p519
I0
sS'637'
p520
I0
sS'465'
p521
I0
sS'464'
p522
I0
sS'467'
p523
I0
sS'466'
p524
I0
sS'461'
p525
I0
sS'460'
p526
I0
sS'463'
p527
I0
sS'462'
p528
I0
sS'168'
p529
I0
sS'169'
p530
I0
sS'164'
p531
I0
sS'165'
p532
I0
sS'166'
p533
I0
sS'167'
p534
I0
sS'160'
p535
I0
sS'161'
p536
I0
sS'162'
p537
I0
sS'163'
p538
I0
sS'9'
p539
I0
sS'438'
p540
I1
sS'439'
p541
I1
sS'255'
p542
I0
sS'436'
p543
I1
sS'437'
p544
I1
sS'357'
p545
I0
sS'356'
p546
I0
sS'355'
p547
I0
sS'354'
p548
I0
sS'353'
p549
I0
sS'352'
p550
I0
sS'351'
p551
I0
sS'350'
p552
I0
sS'359'
p553
I0
sS'358'
p554
I0
sS'216'
p555
I0
sS'217'
p556
I0
sS'214'
p557
I0
sS'215'
p558
I0
sS'212'
p559
I0
sS'213'
p560
I0
sS'210'
p561
I0
sS'211'
p562
I0
sS'218'
p563
I0
sS'219'
p564
I0
sS'289'
p565
I0
sS'288'
p566
I0
sS'4'
p567
I0
sS'281'
p568
I0
sS'280'
p569
I0
sS'283'
p570
I0
sS'282'
p571
I0
sS'285'
p572
I0
sS'284'
p573
I0
sS'287'
p574
I0
sS'286'
p575
I0
sS'678'
p576
I0
sS'679'
p577
I0
sS'674'
p578
I0
sS'675'
p579
I0
sS'676'
p580
I0
sS'677'
p581
I0
sS'670'
p582
I0
sS'671'
p583
I0
sS'672'
p584
I0
sS'673'
p585
I0
sS'263'
p586
I0
sS'262'
p587
I0
sS'261'
p588
I0
sS'260'
p589
I0
sS'267'
p590
I0
sS'266'
p591
I0
sS'265'
p592
I0
sS'264'
p593
I0
sS'269'
p594
I0
sS'268'
p595
I0
sS'59'
p596
I0
sS'58'
p597
I0
sS'55'
p598
I0
sS'54'
p599
I0
sS'57'
p600
I0
sS'56'
p601
I0
sS'51'
p602
I0
sS'62'
p603
I0
sS'53'
p604
I0
sS'52'
p605
I0
sS'537'
p606
I0
sS'536'
p607
I0
sS'535'
p608
I0
sS'534'
p609
I0
sS'533'
p610
I0
sS'532'
p611
I0
sS'531'
p612
I0
sS'530'
p613
I0
sS'539'
p614
I0
sS'538'
p615
I0
sS'50'
p616
I0
sS'115'
p617
I0
sS'114'
p618
I0
sS'117'
p619
I0
sS'116'
p620
I0
sS'111'
p621
I0
sS'110'
p622
I0
sS'113'
p623
I0
sS'69'
p624
I0
sS'119'
p625
I0
sS'118'
p626
I0
sS'429'
p627
I1
sS'428'
p628
I1
sS'421'
p629
I1
sS'420'
p630
I1
sS'423'
p631
I1
sS'422'
p632
I1
sS'425'
p633
I1
sS'424'
p634
I1
sS'427'
p635
I1
sS'426'
p636
I1
sS'308'
p637
I0
sS'309'
p638
I0
sS'300'
p639
I0
sS'301'
p640
I0
sS'302'
p641
I0
sS'303'
p642
I0
sS'304'
p643
I0
sS'305'
p644
I0
sS'306'
p645
I0
sS'307'
p646
I0
sS'181'
p647
I0
sS'568'
p648
I0
sS'569'
p649
I0
sS'560'
p650
I0
sS'561'
p651
I0
sS'562'
p652
I0
sS'563'
p653
I0
sS'564'
p654
I0
sS'565'
p655
I0
sS'566'
p656
I0
sS'567'
p657
I0
sS'229'
p658
I0
sS'228'
p659
I0
sS'227'
p660
I0
sS'226'
p661
I0
sS'225'
p662
I0
sS'224'
p663
I0
sS'223'
p664
I0
sS'222'
p665
I0
sS'221'
p666
I0
sS'220'
p667
I0
sS'391'
p668
I1
sS'726'
p669
I0
sS'727'
p670
I0
sS'724'
p671
I0
sS'725'
p672
I0
sS'722'
p673
I0
sS'723'
p674
I0
sS'720'
p675
I0
sS'721'
p676
I0
sS'728'
p677
I0
sS'729'
p678
I0
sS'151'
p679
I0
sS'604'
p680
I0
sS'153'
p681
I0
sS'606'
p682
I0
sS'155'
p683
I0
sS'600'
p684
I0
sS'603'
p685
I0
sS'156'
p686
I0
sS'159'
p687
I0
sS'158'
p688
I0
sS'112'
p689
I0
sS'609'
p690
I0
sS'608'
p691
I0
sS'469'
p692
I0
sS'399'
p693
I1
sS'468'
p694
I0
sS'398'
p695
I1
sS'48'
p696
I0
sS'49'
p697
I0
sS'46'
p698
I0
sS'47'
p699
I0
sS'44'
p700
I0
sS'45'
p701
I0
sS'42'
p702
I0
sS'43'
p703
I0
sS'40'
p704
I0
sS'41'
p705
I0
sS'638'
p706
I0
sS'5'
p707
I0
sS'639'
p708
I0
sS'489'
p709
I0
sS'488'
p710
I0
sS'487'
p711
I0
sS'486'
p712
I0
sS'485'
p713
I0
sS'484'
p714
I0
sS'483'
p715
I0
sS'482'
p716
I0
sS'481'
p717
I0
sS'480'
p718
I0
sS'472'
p719
I0
sS'473'
p720
I0
sS'470'
p721
I0
sS'471'
p722
I0
sS'476'
p723
I0
sS'477'
p724
I0
sS'474'
p725
I0
sS'475'
p726
I0
sS'478'
p727
I0
sS'479'
p728
I0
sS'187'
p729
I0
s.