(dp0
S'4446'
p1
I1
sS'593'
p2
I0
sS'4447'
p3
I1
sS'4026'
p4
I0
sS'4027'
p5
I0
sS'4024'
p6
I0
sS'4025'
p7
I0
sS'4022'
p8
I0
sS'4023'
p9
I0
sS'4020'
p10
I0
sS'4021'
p11
I0
sS'643'
p12
I0
sS'4028'
p13
I0
sS'4029'
p14
I0
sS'592'
p15
I0
sS'344'
p16
I0
sS'345'
p17
I0
sS'346'
p18
I0
sS'347'
p19
I0
sS'340'
p20
I0
sS'341'
p21
I0
sS'342'
p22
I0
sS'343'
p23
I0
sS'348'
p24
I0
sS'349'
p25
I0
sS'4930'
p26
I0
sS'595'
p27
I0
sS'4844'
p28
I0
sS'4687'
p29
I0
sS'4932'
p30
I0
sS'4933'
p31
I0
sS'2185'
p32
I1
sS'1296'
p33
I0
sS'4934'
p34
I0
sS'4683'
p35
I0
sS'4732'
p36
I0
sS'4733'
p37
I0
sS'4730'
p38
I0
sS'4731'
p39
I0
sS'4736'
p40
I0
sS'4737'
p41
I0
sS'2318'
p42
I0
sS'2319'
p43
I0
sS'2316'
p44
I0
sS'2317'
p45
I0
sS'2314'
p46
I0
sS'2315'
p47
I0
sS'2312'
p48
I0
sS'2313'
p49
I0
sS'2310'
p50
I0
sS'2311'
p51
I0
sS'4527'
p52
I1
sS'298'
p53
I0
sS'299'
p54
I0
sS'296'
p55
I0
sS'297'
p56
I0
sS'294'
p57
I0
sS'295'
p58
I0
sS'292'
p59
I0
sS'293'
p60
I0
sS'290'
p61
I0
sS'291'
p62
I0
sS'4832'
p63
I0
sS'4523'
p64
I1
sS'4522'
p65
I1
sS'270'
p66
I0
sS'271'
p67
I0
sS'272'
p68
I0
sS'273'
p69
I0
sS'274'
p70
I0
sS'275'
p71
I0
sS'276'
p72
I0
sS'277'
p73
I0
sS'278'
p74
I0
sS'279'
p75
I0
sS'4520'
p76
I1
sS'4659'
p77
I0
sS'4658'
p78
I0
sS'4784'
p79
I0
sS'1780'
p80
I0
sS'2268'
p81
I0
sS'2269'
p82
I0
sS'2188'
p83
I1
sS'2262'
p84
I0
sS'2263'
p85
I0
sS'2260'
p86
I0
sS'2261'
p87
I0
sS'2266'
p88
I0
sS'2267'
p89
I0
sS'2264'
p90
I0
sS'2265'
p91
I0
sS'1781'
p92
I0
sS'2189'
p93
I1
sS'108'
p94
I0
sS'109'
p95
I0
sS'102'
p96
I0
sS'103'
p97
I0
sS'100'
p98
I0
sS'101'
p99
I0
sS'106'
p100
I0
sS'107'
p101
I0
sS'104'
p102
I0
sS'105'
p103
I0
sS'2046'
p104
I0
sS'2047'
p105
I0
sS'2044'
p106
I0
sS'2045'
p107
I0
sS'2042'
p108
I0
sS'2043'
p109
I0
sS'2040'
p110
I0
sS'2041'
p111
I0
sS'4819'
p112
I0
sS'4818'
p113
I0
sS'1297'
p114
I0
sS'2048'
p115
I0
sS'2049'
p116
I0
sS'3238'
p117
I0
sS'2038'
p118
I0
sS'3239'
p119
I0
sS'3391'
p120
I0
sS'1613'
p121
I0
sS'3390'
p122
I0
sS'3393'
p123
I0
sS'99'
p124
I0
sS'98'
p125
I0
sS'3392'
p126
I0
sS'91'
p127
I0
sS'90'
p128
I0
sS'93'
p129
I0
sS'92'
p130
I0
sS'95'
p131
I0
sS'94'
p132
I0
sS'97'
p133
I0
sS'96'
p134
I0
sS'1623'
p135
I0
sS'1622'
p136
I0
sS'1621'
p137
I0
sS'1620'
p138
I0
sS'1627'
p139
I0
sS'1626'
p140
I0
sS'1625'
p141
I0
sS'1624'
p142
I0
sS'1629'
p143
I0
sS'1628'
p144
I0
sS'3209'
p145
I0
sS'3208'
p146
I0
sS'3012'
p147
I0
sS'3398'
p148
I0
sS'2130'
p149
I0
sS'559'
p150
I0
sS'558'
p151
I0
sS'555'
p152
I0
sS'554'
p153
I0
sS'557'
p154
I0
sS'556'
p155
I0
sS'551'
p156
I0
sS'550'
p157
I0
sS'553'
p158
I0
sS'552'
p159
I0
sS'3014'
p160
I0
sS'1199'
p161
I0
sS'1198'
p162
I0
sS'3348'
p163
I0
sS'3349'
p164
I0
sS'1191'
p165
I0
sS'1190'
p166
I0
sS'1193'
p167
I0
sS'1192'
p168
I0
sS'1195'
p169
I0
sS'1194'
p170
I0
sS'1197'
p171
I0
sS'1196'
p172
I0
sS'1759'
p173
I0
sS'1758'
p174
I0
sS'1757'
p175
I0
sS'1756'
p176
I0
sS'1755'
p177
I0
sS'1754'
p178
I0
sS'1753'
p179
I0
sS'1752'
p180
I0
sS'1751'
p181
I0
sS'1750'
p182
I0
sS'4259'
p183
I0
sS'4258'
p184
I0
sS'1175'
p185
I0
sS'1174'
p186
I0
sS'1173'
p187
I0
sS'1172'
p188
I0
sS'1171'
p189
I0
sS'1170'
p190
I0
sS'4251'
p191
I0
sS'4250'
p192
I0
sS'4253'
p193
I0
sS'4252'
p194
I0
sS'4255'
p195
I0
sS'4254'
p196
I0
sS'4257'
p197
I0
sS'4256'
p198
I0
sS'3161'
p199
I0
sS'511'
p200
I0
sS'510'
p201
I0
sS'513'
p202
I0
sS'644'
p203
I0
sS'1285'
p204
I0
sS'1284'
p205
I0
sS'1287'
p206
I0
sS'512'
p207
I0
sS'1281'
p208
I0
sS'1280'
p209
I0
sS'1283'
p210
I0
sS'1282'
p211
I0
sS'515'
p212
I0
sS'1289'
p213
I0
sS'1288'
p214
I0
sS'514'
p215
I0
sS'1579'
p216
I0
sS'1578'
p217
I0
sS'689'
p218
I0
sS'688'
p219
I0
sS'685'
p220
I0
sS'684'
p221
I0
sS'687'
p222
I0
sS'686'
p223
I0
sS'681'
p224
I0
sS'680'
p225
I0
sS'683'
p226
I0
sS'682'
p227
I0
sS'4189'
p228
I0
sS'4188'
p229
I0
sS'621'
p230
I0
sS'3435'
p231
I0
sS'620'
p232
I0
sS'627'
p233
I0
sS'603'
p234
I0
sS'626'
p235
I0
sS'4592'
p236
I0
sS'4389'
p237
I1
sS'4388'
p238
I1
sS'625'
p239
I0
sS'2036'
p240
I0
sS'4383'
p241
I1
sS'4382'
p242
I1
sS'4381'
p243
I1
sS'4380'
p244
I1
sS'4387'
p245
I1
sS'4386'
p246
I1
sS'4385'
p247
I1
sS'4384'
p248
I1
sS'407'
p249
I1
sS'406'
p250
I1
sS'405'
p251
I1
sS'404'
p252
I1
sS'1375'
p253
I0
sS'1374'
p254
I0
sS'401'
p255
I1
sS'400'
p256
I1
sS'1379'
p257
I0
sS'1378'
p258
I0
sS'629'
p259
I0
sS'409'
p260
I1
sS'408'
p261
I1
sS'628'
p262
I0
sS'4594'
p263
I0
sS'454'
p264
I0
sS'2192'
p265
I1
sS'2030'
p266
I0
sS'455'
p267
I0
sS'4031'
p268
I0
sS'4030'
p269
I0
sS'4033'
p270
I0
sS'4032'
p271
I0
sS'4035'
p272
I0
sS'4034'
p273
I0
sS'4037'
p274
I0
sS'4036'
p275
I0
sS'4039'
p276
I0
sS'4038'
p277
I0
sS'4186'
p278
I0
sS'4846'
p279
I0
sS'4599'
p280
I0
sS'4734'
p281
I0
sS'2193'
p282
I1
sS'4735'
p283
I0
sS'379'
p284
I1
sS'378'
p285
I1
sS'3194'
p286
I0
sS'4842'
p287
I0
sS'371'
p288
I1
sS'370'
p289
I0
sS'373'
p290
I1
sS'372'
p291
I1
sS'375'
p292
I1
sS'374'
p293
I1
sS'377'
p294
I1
sS'376'
p295
I1
sS'4739'
p296
I0
sS'393'
p297
I1
sS'392'
p298
I1
sS'391'
p299
I1
sS'390'
p300
I1
sS'397'
p301
I1
sS'396'
p302
I1
sS'395'
p303
I1
sS'394'
p304
I1
sS'399'
p305
I1
sS'398'
p306
I1
sS'2309'
p307
I0
sS'2308'
p308
I0
sS'4729'
p309
I0
sS'4728'
p310
I0
sS'2301'
p311
I0
sS'2300'
p312
I0
sS'2303'
p313
I0
sS'4726'
p314
I0
sS'2305'
p315
I0
sS'2304'
p316
I0
sS'2307'
p317
I0
sS'2306'
p318
I0
sS'4676'
p319
I0
sS'4696'
p320
I0
sS'3203'
p321
I0
sS'245'
p322
I0
sS'244'
p323
I0
sS'247'
p324
I0
sS'246'
p325
I0
sS'241'
p326
I0
sS'240'
p327
I0
sS'243'
p328
I0
sS'4627'
p329
I0
sS'4628'
p330
I0
sS'4629'
p331
I0
sS'249'
p332
I0
sS'248'
p333
I0
sS'2275'
p334
I0
sS'2274'
p335
I0
sS'2277'
p336
I0
sS'2276'
p337
I0
sS'2271'
p338
I0
sS'2270'
p339
I0
sS'2273'
p340
I0
sS'2272'
p341
I0
sS'2279'
p342
I0
sS'2278'
p343
I0
sS'4981'
p344
I0
sS'3201'
p345
I0
sS'723'
p346
I0
sS'646'
p347
I0
sS'1862'
p348
I0
sS'4980'
p349
I0
sS'179'
p350
I0
sS'178'
p351
I0
sS'177'
p352
I0
sS'176'
p353
I0
sS'175'
p354
I0
sS'174'
p355
I0
sS'173'
p356
I0
sS'172'
p357
I0
sS'171'
p358
I0
sS'170'
p359
I0
sS'2051'
p360
I0
sS'2050'
p361
I0
sS'2053'
p362
I0
sS'2052'
p363
I0
sS'2055'
p364
I0
sS'2054'
p365
I0
sS'2057'
p366
I0
sS'2056'
p367
I0
sS'4826'
p368
I0
sS'4535'
p369
I1
sS'4824'
p370
I0
sS'4537'
p371
I1
sS'4530'
p372
I1
sS'4531'
p373
I1
sS'4820'
p374
I0
sS'4821'
p375
I0
sS'655'
p376
I0
sS'652'
p377
I0
sS'653'
p378
I0
sS'650'
p379
I0
sS'651'
p380
I0
sS'4982'
p381
I0
sS'3087'
p382
I0
sS'1113'
p383
I0
sS'4655'
p384
I0
sS'3086'
p385
I0
sS'4654'
p386
I0
sS'4403'
p387
I1
sS'4657'
p388
I0
sS'225'
p389
I0
sS'3225'
p390
I0
sS'4656'
p391
I0
sS'3083'
p392
I0
sS'3224'
p393
I0
sS'4651'
p394
I0
sS'3082'
p395
I0
sS'3227'
p396
I0
sS'4650'
p397
I0
sS'3226'
p398
I0
sS'4653'
p399
I0
sS'3221'
p400
I0
sS'4652'
p401
I0
sS'1604'
p402
I0
sS'1607'
p403
I0
sS'1970'
p404
I0
sS'3232'
p405
I0
sS'3233'
p406
I0
sS'3230'
p407
I0
sS'3231'
p408
I0
sS'1968'
p409
I0
sS'1969'
p410
I0
sS'1618'
p411
I0
sS'1619'
p412
I0
sS'1616'
p413
I0
sS'1617'
p414
I0
sS'1614'
p415
I0
sS'1615'
p416
I0
sS'1612'
p417
I0
sS'1961'
p418
I0
sS'1610'
p419
I0
sS'1611'
p420
I0
sS'2153'
p421
I0
sS'597'
p422
I0
sS'3355'
p423
I0
sS'3354'
p424
I0
sS'3357'
p425
I0
sS'3356'
p426
I0
sS'3351'
p427
I0
sS'3350'
p428
I0
sS'3353'
p429
I0
sS'3352'
p430
I0
sS'3359'
p431
I0
sS'3358'
p432
I0
sS'1768'
p433
I0
sS'1769'
p434
I0
sS'1762'
p435
I0
sS'1763'
p436
I0
sS'1760'
p437
I0
sS'1761'
p438
I0
sS'1766'
p439
I0
sS'1767'
p440
I0
sS'1764'
p441
I0
sS'1765'
p442
I0
sS'1142'
p443
I0
sS'1143'
p444
I0
sS'1140'
p445
I0
sS'1141'
p446
I0
sS'1146'
p447
I0
sS'1147'
p448
I0
sS'1144'
p449
I0
sS'1145'
p450
I0
sS'1148'
p451
I0
sS'1149'
p452
I0
sS'692'
p453
I0
sS'693'
p454
I0
sS'690'
p455
I0
sS'691'
p456
I0
sS'696'
p457
I0
sS'697'
p458
I0
sS'694'
p459
I0
sS'695'
p460
I0
sS'698'
p461
I0
sS'699'
p462
I0
sS'1548'
p463
I0
sS'1549'
p464
I0
sS'542'
p465
I0
sS'543'
p466
I0
sS'540'
p467
I0
sS'541'
p468
I0
sS'546'
p469
I0
sS'547'
p470
I0
sS'544'
p471
I0
sS'545'
p472
I0
sS'548'
p473
I0
sS'549'
p474
I0
sS'1864'
p475
I0
sS'414'
p476
I1
sS'415'
p477
I1
sS'416'
p478
I1
sS'417'
p479
I1
sS'410'
p480
I1
sS'411'
p481
I1
sS'412'
p482
I1
sS'413'
p483
I1
sS'1384'
p484
I0
sS'1385'
p485
I0
sS'1386'
p486
I0
sS'1387'
p487
I0
sS'418'
p488
I1
sS'419'
p489
I1
sS'1382'
p490
I0
sS'1383'
p491
I0
sS'3089'
p492
I0
sS'4282'
p493
I0
sS'4283'
p494
I0
sS'4280'
p495
I0
sS'4281'
p496
I0
sS'4286'
p497
I0
sS'4287'
p498
I0
sS'4284'
p499
I0
sS'4285'
p500
I0
sS'4288'
p501
I0
sS'4289'
p502
I0
sS'368'
p503
I0
sS'369'
p504
I0
sS'366'
p505
I0
sS'367'
p506
I0
sS'364'
p507
I0
sS'365'
p508
I0
sS'362'
p509
I0
sS'363'
p510
I0
sS'360'
p511
I0
sS'361'
p512
I0
sS'380'
p513
I1
sS'381'
p514
I1
sS'382'
p515
I1
sS'383'
p516
I1
sS'384'
p517
I1
sS'385'
p518
I1
sS'386'
p519
I1
sS'387'
p520
I1
sS'388'
p521
I1
sS'389'
p522
I1
sS'3215'
p523
I0
sS'4758'
p524
I0
sS'4759'
p525
I0
sS'4750'
p526
I0
sS'4751'
p527
I0
sS'4752'
p528
I0
sS'4753'
p529
I0
sS'4754'
p530
I0
sS'4755'
p531
I0
sS'4756'
p532
I0
sS'4757'
p533
I0
sS'4664'
p534
I0
sS'2190'
p535
I1
sS'2191'
p536
I1
sS'4631'
p537
I0
sS'259'
p538
I0
sS'2194'
p539
I1
sS'2195'
p540
I1
sS'2196'
p541
I1
sS'2197'
p542
I1
sS'2198'
p543
I1
sS'253'
p544
I0
sS'250'
p545
I0
sS'251'
p546
I0
sS'256'
p547
I0
sS'257'
p548
I0
sS'254'
p549
I0
sS'255'
p550
I0
sS'2200'
p551
I1
sS'2201'
p552
I1
sS'2202'
p553
I1
sS'2203'
p554
I1
sS'2204'
p555
I1
sS'2205'
p556
I1
sS'2206'
p557
I1
sS'2207'
p558
I1
sS'2208'
p559
I1
sS'2209'
p560
I1
sS'4701'
p561
I0
sS'4813'
p562
I0
sS'4812'
p563
I0
sS'4811'
p564
I0
sS'4329'
p565
I0
sS'4810'
p566
I0
sS'168'
p567
I0
sS'169'
p568
I0
sS'164'
p569
I0
sS'165'
p570
I0
sS'166'
p571
I0
sS'167'
p572
I0
sS'160'
p573
I0
sS'161'
p574
I0
sS'162'
p575
I0
sS'163'
p576
I0
sS'4839'
p577
I0
sS'4838'
p578
I0
sS'4815'
p579
I0
sS'4529'
p580
I1
sS'4528'
p581
I1
sS'4831'
p582
I0
sS'4526'
p583
I1
sS'4525'
p584
I1
sS'4524'
p585
I1
sS'4835'
p586
I0
sS'4834'
p587
I0
sS'4521'
p588
I1
sS'4836'
p589
I0
sS'4422'
p590
I1
sS'3212'
p591
I0
sS'4423'
p592
I1
sS'4420'
p593
I1
sS'4421'
p594
I1
sS'4426'
p595
I1
sS'4427'
p596
I1
sS'4637'
p597
I0
sS'4424'
p598
I1
sS'5054'
p599
I0
sS'5055'
p600
I0
sS'5056'
p601
I0
sS'4425'
p602
I1
sS'5050'
p603
I0
sS'5051'
p604
I0
sS'5052'
p605
I0
sS'5053'
p606
I0
sS'1814'
p607
I0
sS'1815'
p608
I0
sS'1816'
p609
I0
sS'1817'
p610
I0
sS'1810'
p611
I0
sS'1811'
p612
I0
sS'1812'
p613
I0
sS'1813'
p614
I0
sS'4339'
p615
I0
sS'1818'
p616
I0
sS'1819'
p617
I0
sS'674'
p618
I0
sS'675'
p619
I0
sS'725'
p620
I0
sS'676'
p621
I0
sS'677'
p622
I0
sS'1098'
p623
I0
sS'1099'
p624
I0
sS'2165'
p625
I1
sS'3042'
p626
I0
sS'4330'
p627
I0
sS'2164'
p628
I1
sS'4331'
p629
I0
sS'2167'
p630
I1
sS'1609'
p631
I0
sS'1608'
p632
I0
sS'2166'
p633
I1
sS'3229'
p634
I0
sS'3228'
p635
I0
sS'1601'
p636
I0
sS'1600'
p637
I0
sS'1603'
p638
I0
sS'1602'
p639
I0
sS'1605'
p640
I0
sS'1972'
p641
I0
sS'1971'
p642
I0
sS'1606'
p643
I0
sS'2163'
p644
I1
sS'2162'
p645
I1
sS'3320'
p646
I0
sS'3321'
p647
I0
sS'3322'
p648
I0
sS'3323'
p649
I0
sS'3324'
p650
I0
sS'3325'
p651
I0
sS'3326'
p652
I0
sS'3327'
p653
I0
sS'3328'
p654
I0
sS'3329'
p655
I0
sS'1775'
p656
I0
sS'1774'
p657
I0
sS'1777'
p658
I0
sS'1776'
p659
I0
sS'1771'
p660
I0
sS'1770'
p661
I0
sS'1773'
p662
I0
sS'1772'
p663
I0
sS'1779'
p664
I0
sS'1778'
p665
I0
sS'1159'
p666
I0
sS'1158'
p667
I0
sS'1155'
p668
I0
sS'1154'
p669
I0
sS'1157'
p670
I0
sS'1156'
p671
I0
sS'1151'
p672
I0
sS'1150'
p673
I0
sS'1153'
p674
I0
sS'1152'
p675
I0
sS'59'
p676
I0
sS'58'
p677
I0
sS'1551'
p678
I0
sS'1550'
p679
I0
sS'1553'
p680
I0
sS'1552'
p681
I0
sS'1555'
p682
I0
sS'1554'
p683
I0
sS'1557'
p684
I0
sS'1556'
p685
I0
sS'55'
p686
I0
sS'54'
p687
I0
sS'57'
p688
I0
sS'56'
p689
I0
sS'51'
p690
I0
sS'50'
p691
I0
sS'53'
p692
I0
sS'52'
p693
I0
sS'537'
p694
I0
sS'536'
p695
I0
sS'535'
p696
I0
sS'534'
p697
I0
sS'533'
p698
I0
sS'532'
p699
I0
sS'531'
p700
I0
sS'530'
p701
I0
sS'3036'
p702
I0
sS'539'
p703
I0
sS'538'
p704
I0
sS'3037'
p705
I0
sS'1558'
p706
I0
sS'3030'
p707
I0
sS'3031'
p708
I0
sS'3294'
p709
I0
sS'3032'
p710
I0
sS'3295'
p711
I0
sS'3033'
p712
I0
sS'3296'
p713
I0
sS'3297'
p714
I0
sS'3290'
p715
I0
sS'3291'
p716
I0
sS'429'
p717
I1
sS'428'
p718
I1
sS'3292'
p719
I0
sS'1399'
p720
I0
sS'1398'
p721
I0
sS'421'
p722
I1
sS'420'
p723
I1
sS'423'
p724
I1
sS'422'
p725
I1
sS'425'
p726
I1
sS'424'
p727
I1
sS'427'
p728
I1
sS'426'
p729
I1
sS'4692'
p730
I0
sS'4299'
p731
I0
sS'4298'
p732
I0
sS'4295'
p733
I0
sS'4294'
p734
I0
sS'4297'
p735
I0
sS'4296'
p736
I0
sS'4291'
p737
I0
sS'4290'
p738
I0
sS'4293'
p739
I0
sS'4292'
p740
I0
sS'4749'
p741
I0
sS'4748'
p742
I0
sS'4743'
p743
I0
sS'4742'
p744
I0
sS'4741'
p745
I0
sS'4740'
p746
I0
sS'4747'
p747
I0
sS'4746'
p748
I0
sS'4745'
p749
I0
sS'4744'
p750
I0
sS'2183'
p751
I1
sS'2182'
p752
I1
sS'2181'
p753
I1
sS'2180'
p754
I1
sS'2187'
p755
I1
sS'2186'
p756
I1
sS'4608'
p757
I0
sS'2184'
p758
I1
sS'4606'
p759
I0
sS'4607'
p760
I0
sS'4604'
p761
I0
sS'4605'
p762
I0
sS'4602'
p763
I0
sS'4603'
p764
I0
sS'4600'
p765
I0
sS'4601'
p766
I0
sS'2213'
p767
I1
sS'2212'
p768
I1
sS'2211'
p769
I1
sS'2210'
p770
I1
sS'2217'
p771
I1
sS'2216'
p772
I1
sS'2215'
p773
I1
sS'2214'
p774
I1
sS'2219'
p775
I1
sS'2218'
p776
I1
sS'3375'
p777
I0
sS'151'
p778
I0
sS'150'
p779
I0
sS'153'
p780
I0
sS'152'
p781
I0
sS'155'
p782
I0
sS'154'
p783
I0
sS'157'
p784
I0
sS'156'
p785
I0
sS'159'
p786
I0
sS'158'
p787
I0
sS'1293'
p788
I0
sS'590'
p789
I0
sS'4922'
p790
I0
sS'4518'
p791
I1
sS'4519'
p792
I1
sS'4512'
p793
I1
sS'4513'
p794
I1
sS'4510'
p795
I1
sS'4511'
p796
I1
sS'4516'
p797
I1
sS'4517'
p798
I1
sS'4514'
p799
I1
sS'4515'
p800
I1
sS'5049'
p801
I0
sS'5048'
p802
I0
sS'5047'
p803
I0
sS'5046'
p804
I0
sS'5045'
p805
I0
sS'5044'
p806
I0
sS'5043'
p807
I0
sS'5042'
p808
I0
sS'5041'
p809
I0
sS'5040'
p810
I0
sS'1807'
p811
I0
sS'1806'
p812
I0
sS'1805'
p813
I0
sS'1804'
p814
I0
sS'1803'
p815
I0
sS'1802'
p816
I0
sS'1801'
p817
I0
sS'1800'
p818
I0
sS'1809'
p819
I0
sS'1808'
p820
I0
sS'4996'
p821
I0
sS'4997'
p822
I0
sS'4994'
p823
I0
sS'4995'
p824
I0
sS'4992'
p825
I0
sS'4993'
p826
I0
sS'4990'
p827
I0
sS'4991'
p828
I0
sS'4998'
p829
I0
sS'4999'
p830
I0
sS'3088'
p831
I0
sS'3258'
p832
I0
sS'1256'
p833
I0
sS'1948'
p834
I0
sS'1949'
p835
I0
sS'1257'
p836
I0
sS'1942'
p837
I0
sS'1943'
p838
I0
sS'1940'
p839
I0
sS'1941'
p840
I0
sS'1946'
p841
I0
sS'1947'
p842
I0
sS'1944'
p843
I0
sS'1945'
p844
I0
sS'1255'
p845
I0
sS'1252'
p846
I0
sS'4268'
p847
I0
sS'1253'
p848
I0
sS'3207'
p849
I0
sS'1250'
p850
I0
sS'3206'
p851
I0
sS'1523'
p852
I0
sS'3205'
p853
I0
sS'1490'
p854
I0
sS'1491'
p855
I0
sS'1492'
p856
I0
sS'1493'
p857
I0
sS'1494'
p858
I0
sS'1495'
p859
I0
sS'1496'
p860
I0
sS'1497'
p861
I0
sS'1498'
p862
I0
sS'1499'
p863
I0
sS'3339'
p864
I0
sS'3338'
p865
I0
sS'1395'
p866
I0
sS'3202'
p867
I0
sS'1700'
p868
I0
sS'4570'
p869
I1
sS'1702'
p870
I0
sS'1394'
p871
I0
sS'1704'
p872
I0
sS'1705'
p873
I0
sS'1706'
p874
I0
sS'4571'
p875
I1
sS'1708'
p876
I0
sS'1393'
p877
I0
sS'3200'
p878
I0
sS'4572'
p879
I1
sS'1392'
p880
I0
sS'4573'
p881
I1
sS'1391'
p882
I0
sS'4574'
p883
I1
sS'1390'
p884
I0
sS'4575'
p885
I1
sS'1128'
p886
I0
sS'1129'
p887
I0
sS'4576'
p888
I1
sS'1120'
p889
I0
sS'1121'
p890
I0
sS'1122'
p891
I0
sS'2092'
p892
I0
sS'1124'
p893
I0
sS'1125'
p894
I0
sS'1126'
p895
I0
sS'1127'
p896
I0
sS'3029'
p897
I0
sS'3028'
p898
I0
sS'3027'
p899
I0
sS'3026'
p900
I0
sS'3025'
p901
I0
sS'3024'
p902
I0
sS'3023'
p903
I0
sS'3022'
p904
I0
sS'3021'
p905
I0
sS'3020'
p906
I0
sS'524'
p907
I0
sS'525'
p908
I0
sS'526'
p909
I0
sS'527'
p910
I0
sS'1018'
p911
I0
sS'521'
p912
I0
sS'522'
p913
I0
sS'523'
p914
I0
sS'1014'
p915
I0
sS'1015'
p916
I0
sS'1016'
p917
I0
sS'1017'
p918
I0
sS'528'
p919
I0
sS'529'
p920
I0
sS'1012'
p921
I0
sS'1013'
p922
I0
sS'1234'
p923
I0
sS'1235'
p924
I0
sS'1236'
p925
I0
sS'1237'
p926
I0
sS'1230'
p927
I0
sS'1231'
p928
I0
sS'4198'
p929
I0
sS'1233'
p930
I0
sS'4196'
p931
I0
sS'4197'
p932
I0
sS'4194'
p933
I0
sS'4195'
p934
I0
sS'1238'
p935
I0
sS'4193'
p936
I0
sS'4190'
p937
I0
sS'4191'
p938
I0
sS'4358'
p939
I0
sS'4359'
p940
I0
sS'4354'
p941
I0
sS'4355'
p942
I0
sS'4356'
p943
I0
sS'4357'
p944
I0
sS'4350'
p945
I0
sS'4351'
p946
I0
sS'4352'
p947
I0
sS'4353'
p948
I0
sS'4901'
p949
I0
sS'438'
p950
I1
sS'439'
p951
I1
sS'436'
p952
I1
sS'437'
p953
I1
sS'434'
p954
I1
sS'435'
p955
I1
sS'432'
p956
I1
sS'433'
p957
I1
sS'430'
p958
I1
sS'431'
p959
I1
sS'4674'
p960
I0
sS'4673'
p961
I0
sS'4672'
p962
I0
sS'4907'
p963
I0
sS'4906'
p964
I0
sS'3282'
p965
I0
sS'4776'
p966
I0
sS'4777'
p967
I0
sS'4774'
p968
I0
sS'4775'
p969
I0
sS'4772'
p970
I0
sS'4773'
p971
I0
sS'4770'
p972
I0
sS'4771'
p973
I0
sS'4778'
p974
I0
sS'4779'
p975
I0
sS'4174'
p976
I0
sS'4175'
p977
I0
sS'4176'
p978
I0
sS'4177'
p979
I0
sS'4170'
p980
I0
sS'4171'
p981
I0
sS'4172'
p982
I0
sS'4173'
p983
I0
sS'4178'
p984
I0
sS'4179'
p985
I0
sS'4469'
p986
I1
sS'4619'
p987
I0
sS'4618'
p988
I0
sS'238'
p989
I0
sS'239'
p990
I0
sS'4611'
p991
I0
sS'4610'
p992
I0
sS'4613'
p993
I0
sS'237'
p994
I0
sS'230'
p995
I0
sS'4614'
p996
I0
sS'232'
p997
I0
sS'233'
p998
I0
sS'2228'
p999
I0
sS'2229'
p1000
I0
sS'2226'
p1001
I0
sS'2227'
p1002
I0
sS'2224'
p1003
I1
sS'2225'
p1004
I1
sS'2222'
p1005
I1
sS'2223'
p1006
I1
sS'2220'
p1007
I1
sS'2221'
p1008
I1
sS'1'
p1009
I0
sS'3217'
p1010
I0
sS'146'
p1011
I0
sS'147'
p1012
I0
sS'144'
p1013
I0
sS'145'
p1014
I0
sS'142'
p1015
I0
sS'143'
p1016
I0
sS'140'
p1017
I0
sS'141'
p1018
I0
sS'148'
p1019
I0
sS'149'
p1020
I0
sS'4505'
p1021
I1
sS'4504'
p1022
I1
sS'4507'
p1023
I1
sS'4506'
p1024
I1
sS'4501'
p1025
I1
sS'4500'
p1026
I1
sS'4503'
p1027
I1
sS'4502'
p1028
I1
sS'4509'
p1029
I1
sS'4508'
p1030
I1
sS'3401'
p1031
I0
sS'2088'
p1032
I0
sS'2089'
p1033
I0
sS'594'
p1034
I0
sS'2082'
p1035
I0
sS'2083'
p1036
I0
sS'2080'
p1037
I0
sS'2081'
p1038
I0
sS'2086'
p1039
I0
sS'2087'
p1040
I0
sS'2084'
p1041
I0
sS'2085'
p1042
I0
sS'3342'
p1043
I0
sS'123'
p1044
I0
sS'3343'
p1045
I0
sS'3405'
p1046
I0
sS'3340'
p1047
I0
sS'3404'
p1048
I0
sS'4187'
p1049
I0
sS'3341'
p1050
I0
sS'3407'
p1051
I0
sS'3346'
p1052
I0
sS'3093'
p1053
I0
sS'3347'
p1054
I0
sS'3409'
p1055
I0
sS'3344'
p1056
I0
sS'3408'
p1057
I0
sS'3345'
p1058
I0
sS'1832'
p1059
I0
sS'1833'
p1060
I0
sS'1830'
p1061
I0
sS'1831'
p1062
I0
sS'1836'
p1063
I0
sS'1837'
p1064
I0
sS'1834'
p1065
I0
sS'1835'
p1066
I0
sS'3090'
p1067
I0
sS'1838'
p1068
I0
sS'1839'
p1069
I0
sS'2154'
p1070
I0
sS'2155'
p1071
I0
sS'4983'
p1072
I0
sS'2157'
p1073
I0
sS'4985'
p1074
I0
sS'4984'
p1075
I0
sS'4987'
p1076
I0
sS'4986'
p1077
I0
sS'4989'
p1078
I0
sS'4988'
p1079
I0
sS'2158'
p1080
I0
sS'2159'
p1081
I0
sS'3091'
p1082
I0
sS'1955'
p1083
I0
sS'1954'
p1084
I0
sS'1957'
p1085
I0
sS'1956'
p1086
I0
sS'1951'
p1087
I0
sS'1950'
p1088
I0
sS'1953'
p1089
I0
sS'1952'
p1090
I0
sS'4408'
p1091
I1
sS'1959'
p1092
I0
sS'1958'
p1093
I0
sS'4409'
p1094
I1
sS'3249'
p1095
I0
sS'3248'
p1096
I0
sS'3096'
p1097
I0
sS'3243'
p1098
I0
sS'3242'
p1099
I0
sS'3241'
p1100
I0
sS'3240'
p1101
I0
sS'3247'
p1102
I0
sS'3246'
p1103
I0
sS'3245'
p1104
I0
sS'3244'
p1105
I0
sS'4404'
p1106
I1
sS'4738'
p1107
I0
sS'4405'
p1108
I1
sS'3151'
p1109
I0
sS'4406'
p1110
I1
sS'1177'
p1111
I0
sS'4407'
p1112
I1
sS'1176'
p1113
I0
sS'4400'
p1114
I1
sS'618'
p1115
I0
sS'4401'
p1116
I1
sS'227'
p1117
I0
sS'1482'
p1118
I0
sS'1481'
p1119
I0
sS'619'
p1120
I0
sS'1487'
p1121
I0
sS'1486'
p1122
I0
sS'1485'
p1123
I0
sS'1484'
p1124
I0
sS'3306'
p1125
I0
sS'3307'
p1126
I0
sS'1489'
p1127
I0
sS'1488'
p1128
I0
sS'3302'
p1129
I0
sS'3303'
p1130
I0
sS'3300'
p1131
I0
sS'4315'
p1132
I0
sS'1713'
p1133
I0
sS'1712'
p1134
I0
sS'1711'
p1135
I0
sS'1710'
p1136
I0
sS'1717'
p1137
I0
sS'1716'
p1138
I0
sS'1715'
p1139
I0
sS'1714'
p1140
I0
sS'1719'
p1141
I0
sS'1718'
p1142
I0
sS'612'
p1143
I0
sS'613'
p1144
I0
sS'4978'
p1145
I0
sS'610'
p1146
I0
sS'4979'
p1147
I0
sS'1139'
p1148
I0
sS'611'
p1149
I0
sS'1133'
p1150
I0
sS'1132'
p1151
I0
sS'1131'
p1152
I0
sS'1130'
p1153
I0
sS'1137'
p1154
I0
sS'1136'
p1155
I0
sS'1135'
p1156
I0
sS'617'
p1157
I0
sS'1179'
p1158
I0
sS'476'
p1159
I0
sS'1178'
p1160
I0
sS'3018'
p1161
I0
sS'3019'
p1162
I0
sS'4328'
p1163
I0
sS'3013'
p1164
I0
sS'3010'
p1165
I0
sS'3011'
p1166
I0
sS'3016'
p1167
I0
sS'3017'
p1168
I0
sS'3308'
p1169
I0
sS'3015'
p1170
I0
sS'519'
p1171
I0
sS'518'
p1172
I0
sS'4972'
p1173
I0
sS'1009'
p1174
I0
sS'1008'
p1175
I0
sS'1007'
p1176
I0
sS'1006'
p1177
I0
sS'1005'
p1178
I0
sS'1004'
p1179
I0
sS'1003'
p1180
I0
sS'1002'
p1181
I0
sS'1001'
p1182
I0
sS'516'
p1183
I0
sS'1227'
p1184
I0
sS'1226'
p1185
I0
sS'1225'
p1186
I0
sS'1224'
p1187
I0
sS'1223'
p1188
I0
sS'1222'
p1189
I0
sS'1221'
p1190
I0
sS'624'
p1191
I0
sS'4181'
p1192
I0
sS'4180'
p1193
I0
sS'4183'
p1194
I0
sS'4182'
p1195
I0
sS'4185'
p1196
I0
sS'4184'
p1197
I0
sS'1229'
p1198
I0
sS'1228'
p1199
I0
sS'4349'
p1200
I0
sS'4348'
p1201
I0
sS'4347'
p1202
I0
sS'4346'
p1203
I0
sS'4345'
p1204
I0
sS'4344'
p1205
I0
sS'4343'
p1206
I0
sS'4342'
p1207
I0
sS'4341'
p1208
I0
sS'4340'
p1209
I0
sS'3197'
p1210
I0
sS'2'
p1211
I0
sS'3196'
p1212
I0
sS'1286'
p1213
I0
sS'11'
p1214
I0
sS'10'
p1215
I0
sS'13'
p1216
I0
sS'12'
p1217
I0
sS'15'
p1218
I0
sS'14'
p1219
I0
sS'17'
p1220
I0
sS'16'
p1221
I0
sS'19'
p1222
I0
sS'18'
p1223
I0
sS'3118'
p1224
I0
sS'3274'
p1225
I0
sS'3275'
p1226
I0
sS'3272'
p1227
I0
sS'3273'
p1228
I0
sS'3270'
p1229
I0
sS'3113'
p1230
I0
sS'3271'
p1231
I0
sS'3112'
p1232
I0
sS'4761'
p1233
I0
sS'4760'
p1234
I0
sS'4763'
p1235
I0
sS'4762'
p1236
I0
sS'4765'
p1237
I0
sS'4764'
p1238
I0
sS'4767'
p1239
I0
sS'4766'
p1240
I0
sS'4769'
p1241
I0
sS'4768'
p1242
I0
sS'3193'
p1243
I0
sS'4167'
p1244
I0
sS'4166'
p1245
I0
sS'4165'
p1246
I0
sS'4164'
p1247
I0
sS'4163'
p1248
I0
sS'4162'
p1249
I0
sS'4161'
p1250
I0
sS'4160'
p1251
I0
sS'599'
p1252
I0
sS'4169'
p1253
I0
sS'4168'
p1254
I0
sS'678'
p1255
I0
sS'3192'
p1256
I0
sS'201'
p1257
I0
sS'200'
p1258
I0
sS'203'
p1259
I0
sS'202'
p1260
I0
sS'205'
p1261
I0
sS'204'
p1262
I0
sS'207'
p1263
I0
sS'206'
p1264
I0
sS'209'
p1265
I0
sS'208'
p1266
I0
sS'679'
p1267
I0
sS'1573'
p1268
I0
sS'4706'
p1269
I0
sS'1572'
p1270
I0
sS'3191'
p1271
I0
sS'1571'
p1272
I0
sS'2239'
p1273
I0
sS'2238'
p1274
I0
sS'1570'
p1275
I0
sS'2231'
p1276
I0
sS'2230'
p1277
I0
sS'2233'
p1278
I0
sS'2232'
p1279
I0
sS'2235'
p1280
I0
sS'2234'
p1281
I0
sS'2237'
p1282
I0
sS'2236'
p1283
I0
sS'1575'
p1284
I0
sS'3190'
p1285
I0
sS'1574'
p1286
I0
sS'3301'
p1287
I0
sS'229'
p1288
I0
sS'228'
p1289
I0
sS'2095'
p1290
I0
sS'2094'
p1291
I0
sS'2097'
p1292
I0
sS'2096'
p1293
I0
sS'2091'
p1294
I0
sS'2090'
p1295
I0
sS'2093'
p1296
I0
sS'226'
p1297
I0
sS'4578'
p1298
I1
sS'4579'
p1299
I1
sS'2099'
p1300
I0
sS'2098'
p1301
I0
sS'224'
p1302
I0
sS'223'
p1303
I0
sS'222'
p1304
I0
sS'221'
p1305
I0
sS'220'
p1306
I0
sS'598'
p1307
I0
sS'4888'
p1308
I0
sS'4889'
p1309
I0
sS'4880'
p1310
I0
sS'4881'
p1311
I0
sS'4882'
p1312
I0
sS'4883'
p1313
I0
sS'4884'
p1314
I0
sS'4885'
p1315
I0
sS'4886'
p1316
I0
sS'4887'
p1317
I0
sS'1829'
p1318
I0
sS'1828'
p1319
I0
sS'1825'
p1320
I0
sS'1824'
p1321
I0
sS'1827'
p1322
I0
sS'1826'
p1323
I0
sS'1821'
p1324
I0
sS'1820'
p1325
I0
sS'4402'
p1326
I1
sS'1822'
p1327
I0
sS'2147'
p1328
I0
sS'2146'
p1329
I0
sS'2145'
p1330
I0
sS'2144'
p1331
I0
sS'2143'
p1332
I0
sS'2142'
p1333
I0
sS'2141'
p1334
I0
sS'2140'
p1335
I0
sS'4974'
p1336
I0
sS'4975'
p1337
I0
sS'4976'
p1338
I0
sS'4977'
p1339
I0
sS'4970'
p1340
I0
sS'4971'
p1341
I0
sS'2149'
p1342
I0
sS'4973'
p1343
I0
sS'4326'
p1344
I0
sS'1920'
p1345
I0
sS'494'
p1346
I0
sS'1922'
p1347
I0
sS'1923'
p1348
I0
sS'1924'
p1349
I0
sS'1925'
p1350
I0
sS'1926'
p1351
I0
sS'1927'
p1352
I0
sS'1928'
p1353
I0
sS'1929'
p1354
I0
sS'475'
p1355
I0
sS'496'
p1356
I0
sS'3278'
p1357
I0
sS'3279'
p1358
I0
sS'497'
p1359
I0
sS'490'
p1360
I0
sS'491'
p1361
I0
sS'3'
p1362
I0
sS'492'
p1363
I0
sS'4248'
p1364
I0
sS'4622'
p1365
I0
sS'493'
p1366
I0
sS'3199'
p1367
I0
sS'3319'
p1368
I0
sS'3318'
p1369
I0
sS'4249'
p1370
I0
sS'3311'
p1371
I0
sS'3310'
p1372
I0
sS'3313'
p1373
I0
sS'3312'
p1374
I0
sS'3315'
p1375
I0
sS'3314'
p1376
I0
sS'1532'
p1377
I0
sS'3316'
p1378
I0
sS'1728'
p1379
I0
sS'1729'
p1380
I0
sS'1726'
p1381
I0
sS'1727'
p1382
I0
sS'1724'
p1383
I0
sS'1725'
p1384
I0
sS'1722'
p1385
I0
sS'1723'
p1386
I0
sS'1720'
p1387
I0
sS'1721'
p1388
I0
sS'3361'
p1389
I0
sS'3330'
p1390
I0
sS'60'
p1391
I0
sS'61'
p1392
I0
sS'62'
p1393
I0
sS'63'
p1394
I0
sS'64'
p1395
I0
sS'65'
p1396
I0
sS'66'
p1397
I0
sS'67'
p1398
I0
sS'68'
p1399
I0
sS'69'
p1400
I0
sS'3009'
p1401
I0
sS'3008'
p1402
I0
sS'1371'
p1403
I0
sS'1588'
p1404
I0
sS'1589'
p1405
I0
sS'1370'
p1406
I0
sS'1582'
p1407
I0
sS'1583'
p1408
I0
sS'1580'
p1409
I0
sS'1581'
p1410
I0
sS'1586'
p1411
I0
sS'1373'
p1412
I0
sS'1584'
p1413
I0
sS'1585'
p1414
I0
sS'1038'
p1415
I0
sS'1372'
p1416
I0
sS'3317'
p1417
I0
sS'508'
p1418
I0
sS'509'
p1419
I0
sS'506'
p1420
I0
sS'403'
p1421
I1
sS'504'
p1422
I0
sS'505'
p1423
I0
sS'502'
p1424
I0
sS'503'
p1425
I0
sS'500'
p1426
I0
sS'402'
p1427
I1
sS'1212'
p1428
I0
sS'1213'
p1429
I0
sS'1210'
p1430
I0
sS'633'
p1431
I0
sS'1216'
p1432
I0
sS'1217'
p1433
I0
sS'636'
p1434
I0
sS'637'
p1435
I0
sS'638'
p1436
I0
sS'639'
p1437
I0
sS'1218'
p1438
I0
sS'1219'
p1439
I0
sS'4378'
p1440
I0
sS'4379'
p1441
I0
sS'4372'
p1442
I0
sS'4373'
p1443
I0
sS'4370'
p1444
I0
sS'4371'
p1445
I0
sS'4376'
p1446
I0
sS'4377'
p1447
I0
sS'4374'
p1448
I0
sS'4375'
p1449
I0
sS'465'
p1450
I0
sS'4242'
p1451
I0
sS'1106'
p1452
I0
sS'1107'
p1453
I0
sS'1104'
p1454
I0
sS'1457'
p1455
I0
sS'1450'
p1456
I0
sS'1451'
p1457
I0
sS'1452'
p1458
I0
sS'1453'
p1459
I0
sS'4457'
p1460
I1
sS'1458'
p1461
I0
sS'1459'
p1462
I0
sS'1108'
p1463
I0
sS'4830'
p1464
I0
sS'4080'
p1465
I0
sS'4081'
p1466
I0
sS'4082'
p1467
I0
sS'4083'
p1468
I0
sS'4084'
p1469
I0
sS'4085'
p1470
I0
sS'4086'
p1471
I0
sS'4087'
p1472
I0
sS'4088'
p1473
I0
sS'4089'
p1474
I0
sS'3218'
p1475
I0
sS'2245'
p1476
I0
sS'467'
p1477
I0
sS'4833'
p1478
I0
sS'4458'
p1479
I1
sS'466'
p1480
I0
sS'1576'
p1481
I0
sS'2136'
p1482
I0
sS'2137'
p1483
I0
sS'4921'
p1484
I0
sS'2135'
p1485
I0
sS'4798'
p1486
I0
sS'4799'
p1487
I0
sS'4794'
p1488
I0
sS'4795'
p1489
I0
sS'4796'
p1490
I0
sS'4797'
p1491
I0
sS'4790'
p1492
I0
sS'4791'
p1493
I0
sS'4792'
p1494
I0
sS'2133'
p1495
I0
sS'4152'
p1496
I0
sS'4153'
p1497
I0
sS'4150'
p1498
I0
sS'4151'
p1499
I0
sS'4156'
p1500
I0
sS'4925'
p1501
I0
sS'4154'
p1502
I0
sS'4155'
p1503
I0
sS'4158'
p1504
I0
sS'4159'
p1505
I0
sS'4338'
p1506
I0
sS'460'
p1507
I0
sS'3071'
p1508
I0
sS'216'
p1509
I0
sS'217'
p1510
I0
sS'214'
p1511
I0
sS'215'
p1512
I0
sS'212'
p1513
I0
sS'213'
p1514
I0
sS'210'
p1515
I0
sS'211'
p1516
I0
sS'218'
p1517
I0
sS'219'
p1518
I0
sS'3094'
p1519
I0
sS'4837'
p1520
I0
sS'3072'
p1521
I0
sS'462'
p1522
I0
sS'4'
p1523
I0
sS'572'
p1524
I0
sS'3097'
p1525
I0
sS'577'
p1526
I0
sS'576'
p1527
I0
sS'4563'
p1528
I1
sS'4562'
p1529
I1
sS'4561'
p1530
I1
sS'4560'
p1531
I1
sS'4567'
p1532
I1
sS'4566'
p1533
I1
sS'4565'
p1534
I1
sS'4564'
p1535
I1
sS'4569'
p1536
I1
sS'4568'
p1537
I1
sS'3005'
p1538
I0
sS'3004'
p1539
I0
sS'3283'
p1540
I0
sS'3007'
p1541
I0
sS'3006'
p1542
I0
sS'3001'
p1543
I0
sS'4625'
p1544
I0
sS'5010'
p1545
I0
sS'5011'
p1546
I0
sS'4899'
p1547
I0
sS'4898'
p1548
I0
sS'5014'
p1549
I0
sS'5015'
p1550
I0
sS'5016'
p1551
I0
sS'5017'
p1552
I0
sS'4893'
p1553
I0
sS'5019'
p1554
I0
sS'4891'
p1555
I0
sS'4890'
p1556
I0
sS'4897'
p1557
I0
sS'4896'
p1558
I0
sS'4895'
p1559
I0
sS'4894'
p1560
I0
sS'1401'
p1561
I0
sS'1858'
p1562
I0
sS'1859'
p1563
I0
sS'3281'
p1564
I0
sS'4419'
p1565
I1
sS'4418'
p1566
I1
sS'1850'
p1567
I0
sS'1851'
p1568
I0
sS'1852'
p1569
I0
sS'4414'
p1570
I1
sS'1854'
p1571
I0
sS'4412'
p1572
I1
sS'4411'
p1573
I1
sS'4410'
p1574
I1
sS'2172'
p1575
I1
sS'2173'
p1576
I1
sS'2170'
p1577
I1
sS'2171'
p1578
I1
sS'2176'
p1579
I1
sS'2177'
p1580
I1
sS'4969'
p1581
I0
sS'2175'
p1582
I1
sS'4967'
p1583
I0
sS'4966'
p1584
I0
sS'2178'
p1585
I1
sS'2179'
p1586
I1
sS'4963'
p1587
I0
sS'4962'
p1588
I0
sS'4961'
p1589
I0
sS'4960'
p1590
I0
sS'3280'
p1591
I0
sS'4270'
p1592
I0
sS'1109'
p1593
I0
sS'1933'
p1594
I0
sS'1932'
p1595
I0
sS'1931'
p1596
I0
sS'1930'
p1597
I0
sS'1937'
p1598
I0
sS'1936'
p1599
I0
sS'1935'
p1600
I0
sS'1934'
p1601
I0
sS'3269'
p1602
I0
sS'3368'
p1603
I0
sS'1939'
p1604
I0
sS'1938'
p1605
I0
sS'458'
p1606
I0
sS'3369'
p1607
I0
sS'1271'
p1608
I0
sS'4277'
p1609
I0
sS'664'
p1610
I0
sS'3364'
p1611
I0
sS'4713'
p1612
I0
sS'459'
p1613
I0
sS'4927'
p1614
I0
sS'3367'
p1615
I0
sS'4276'
p1616
I0
sS'1587'
p1617
I0
sS'1739'
p1618
I0
sS'1738'
p1619
I0
sS'1731'
p1620
I0
sS'1730'
p1621
I0
sS'1733'
p1622
I0
sS'1732'
p1623
I0
sS'1735'
p1624
I0
sS'1734'
p1625
I0
sS'1737'
p1626
I0
sS'1736'
p1627
I0
sS'1039'
p1628
I0
sS'1220'
p1629
I0
sS'1595'
p1630
I0
sS'1032'
p1631
I0
sS'1597'
p1632
I0
sS'1596'
p1633
I0
sS'1591'
p1634
I0
sS'1590'
p1635
I0
sS'1593'
p1636
I0
sS'507'
p1637
I0
sS'3078'
p1638
I0
sS'3079'
p1639
I0
sS'1599'
p1640
I0
sS'1030'
p1641
I0
sS'1025'
p1642
I0
sS'1024'
p1643
I0
sS'1027'
p1644
I0
sS'1031'
p1645
I0
sS'1021'
p1646
I0
sS'1020'
p1647
I0
sS'1023'
p1648
I0
sS'1022'
p1649
I0
sS'1036'
p1650
I0
sS'1029'
p1651
I0
sS'1028'
p1652
I0
sS'1037'
p1653
I0
sS'1034'
p1654
I0
sS'501'
p1655
I0
sS'4365'
p1656
I0
sS'630'
p1657
I0
sS'4367'
p1658
I0
sS'4366'
p1659
I0
sS'4361'
p1660
I0
sS'4360'
p1661
I0
sS'4363'
p1662
I0
sS'631'
p1663
I0
sS'1205'
p1664
I0
sS'1204'
p1665
I0
sS'1207'
p1666
I0
sS'1206'
p1667
I0
sS'1201'
p1668
I0
sS'1200'
p1669
I0
sS'1203'
p1670
I0
sS'1202'
p1671
I0
sS'3070'
p1672
I0
sS'1211'
p1673
I0
sS'634'
p1674
I0
sS'635'
p1675
I0
sS'1577'
p1676
I0
sS'3108'
p1677
I0
sS'1214'
p1678
I0
sS'2003'
p1679
I0
sS'3104'
p1680
I0
sS'3105'
p1681
I0
sS'3106'
p1682
I0
sS'1215'
p1683
I0
sS'3100'
p1684
I0
sS'3101'
p1685
I0
sS'3102'
p1686
I0
sS'3103'
p1687
I0
sS'1447'
p1688
I0
sS'1110'
p1689
I0
sS'1445'
p1690
I0
sS'1112'
p1691
I0
sS'1443'
p1692
I0
sS'1114'
p1693
I0
sS'1441'
p1694
I0
sS'1116'
p1695
I0
sS'1119'
p1696
I0
sS'1118'
p1697
I0
sS'1351'
p1698
I0
sS'1449'
p1699
I0
sS'1448'
p1700
I0
sS'4093'
p1701
I0
sS'4092'
p1702
I0
sS'4091'
p1703
I0
sS'4090'
p1704
I0
sS'4097'
p1705
I0
sS'4096'
p1706
I0
sS'4095'
p1707
I0
sS'4094'
p1708
I0
sS'461'
p1709
I0
sS'4099'
p1710
I0
sS'4858'
p1711
I0
sS'2059'
p1712
I0
sS'4857'
p1713
I0
sS'463'
p1714
I0
sS'489'
p1715
I0
sS'4584'
p1716
I1
sS'487'
p1717
I0
sS'486'
p1718
I0
sS'485'
p1719
I0
sS'484'
p1720
I0
sS'483'
p1721
I0
sS'4587'
p1722
I0
sS'481'
p1723
I0
sS'480'
p1724
I0
sS'4586'
p1725
I0
sS'4581'
p1726
I1
sS'2058'
p1727
I0
sS'4852'
p1728
I0
sS'4725'
p1729
I0
sS'4583'
p1730
I1
sS'4724'
p1731
I0
sS'4850'
p1732
I0
sS'4727'
p1733
I0
sS'2302'
p1734
I0
sS'3299'
p1735
I0
sS'4721'
p1736
I0
sS'4720'
p1737
I0
sS'4327'
p1738
I0
sS'4723'
p1739
I0
sS'4789'
p1740
I0
sS'4788'
p1741
I0
sS'4787'
p1742
I0
sS'4786'
p1743
I0
sS'4785'
p1744
I0
sS'4722'
p1745
I0
sS'4783'
p1746
I0
sS'4782'
p1747
I0
sS'4781'
p1748
I0
sS'4780'
p1749
I0
sS'4149'
p1750
I0
sS'4148'
p1751
I0
sS'4145'
p1752
I0
sS'4144'
p1753
I0
sS'4147'
p1754
I0
sS'4146'
p1755
I0
sS'4141'
p1756
I0
sS'4140'
p1757
I0
sS'4143'
p1758
I0
sS'4142'
p1759
I0
sS'4822'
p1760
I0
sS'4814'
p1761
I0
sS'456'
p1762
I0
sS'199'
p1763
I0
sS'198'
p1764
I0
sS'195'
p1765
I0
sS'194'
p1766
I0
sS'197'
p1767
I0
sS'196'
p1768
I0
sS'191'
p1769
I0
sS'190'
p1770
I0
sS'193'
p1771
I0
sS'192'
p1772
I0
sS'4558'
p1773
I1
sS'4559'
p1774
I1
sS'4556'
p1775
I1
sS'4557'
p1776
I1
sS'4554'
p1777
I1
sS'4555'
p1778
I1
sS'4552'
p1779
I1
sS'4553'
p1780
I1
sS'4550'
p1781
I1
sS'4551'
p1782
I1
sS'1454'
p1783
I0
sS'1455'
p1784
I0
sS'1456'
p1785
I0
sS'1105'
p1786
I0
sS'1102'
p1787
I0
sS'1103'
p1788
I0
sS'5003'
p1789
I0
sS'5002'
p1790
I0
sS'5001'
p1791
I0
sS'5000'
p1792
I0
sS'5007'
p1793
I0
sS'5006'
p1794
I0
sS'5005'
p1795
I0
sS'5004'
p1796
I0
sS'5009'
p1797
I0
sS'5008'
p1798
I0
sS'3379'
p1799
I0
sS'4620'
p1800
I0
sS'1849'
p1801
I0
sS'1848'
p1802
I0
sS'4621'
p1803
I0
sS'1843'
p1804
I0
sS'1842'
p1805
I0
sS'1841'
p1806
I0
sS'1840'
p1807
I0
sS'1847'
p1808
I0
sS'1846'
p1809
I0
sS'1845'
p1810
I0
sS'1844'
p1811
I0
sS'3250'
p1812
I0
sS'4958'
p1813
I0
sS'4959'
p1814
I0
sS'2169'
p1815
I1
sS'2168'
p1816
I1
sS'3251'
p1817
I0
sS'4952'
p1818
I0
sS'4953'
p1819
I0
sS'4950'
p1820
I0
sS'4951'
p1821
I0
sS'4956'
p1822
I0
sS'4957'
p1823
I0
sS'4954'
p1824
I0
sS'4955'
p1825
I0
sS'3003'
p1826
I0
sS'3253'
p1827
I0
sS'4626'
p1828
I0
sS'3254'
p1829
I0
sS'4540'
p1830
I1
sS'242'
p1831
I0
sS'3255'
p1832
I0
sS'4718'
p1833
I0
sS'3298'
p1834
I0
sS'3256'
p1835
I0
sS'1908'
p1836
I0
sS'1909'
p1837
I0
sS'1906'
p1838
I0
sS'1907'
p1839
I0
sS'1904'
p1840
I0
sS'1905'
p1841
I0
sS'1902'
p1842
I0
sS'1903'
p1843
I0
sS'1900'
p1844
I0
sS'1901'
p1845
I0
sS'3002'
p1846
I0
sS'3293'
p1847
I0
sS'6'
p1848
I0
sS'4546'
p1849
I1
sS'3402'
p1850
I0
sS'3309'
p1851
I0
sS'4265'
p1852
I0
sS'4588'
p1853
I0
sS'616'
p1854
I0
sS'3063'
p1855
I0
sS'3062'
p1856
I0
sS'3061'
p1857
I0
sS'3060'
p1858
I0
sS'3067'
p1859
I0
sS'3066'
p1860
I0
sS'3065'
p1861
I0
sS'3064'
p1862
I0
sS'3069'
p1863
I0
sS'3068'
p1864
I0
sS'1050'
p1865
I0
sS'1051'
p1866
I0
sS'1052'
p1867
I0
sS'1053'
p1868
I0
sS'1054'
p1869
I0
sS'1055'
p1870
I0
sS'1056'
p1871
I0
sS'1057'
p1872
I0
sS'1058'
p1873
I0
sS'1059'
p1874
I0
sS'2152'
p1875
I0
sS'1696'
p1876
I0
sS'1697'
p1877
I0
sS'1694'
p1878
I0
sS'1695'
p1879
I0
sS'1692'
p1880
I0
sS'1693'
p1881
I0
sS'1690'
p1882
I0
sS'1691'
p1883
I0
sS'614'
p1884
I0
sS'715'
p1885
I0
sS'1698'
p1886
I0
sS'1699'
p1887
I0
sS'4310'
p1888
I0
sS'4311'
p1889
I0
sS'4312'
p1890
I0
sS'4313'
p1891
I0
sS'4314'
p1892
I0
sS'4817'
p1893
I0
sS'4316'
p1894
I0
sS'4317'
p1895
I0
sS'4318'
p1896
I0
sS'4319'
p1897
I0
sS'1272'
p1898
I0
sS'1273'
p1899
I0
sS'1274'
p1900
I0
sS'1275'
p1901
I0
sS'1276'
p1902
I0
sS'615'
p1903
I0
sS'711'
p1904
I0
sS'4429'
p1905
I1
sS'710'
p1906
I0
sS'3333'
p1907
I0
sS'4816'
p1908
I0
sS'3119'
p1909
I0
sS'3332'
p1910
I0
sS'3117'
p1911
I0
sS'3116'
p1912
I0
sS'3115'
p1913
I0
sS'3114'
p1914
I0
sS'4269'
p1915
I0
sS'3331'
p1916
I0
sS'3111'
p1917
I0
sS'3110'
p1918
I0
sS'1472'
p1919
I0
sS'1473'
p1920
I0
sS'1470'
p1921
I0
sS'1471'
p1922
I0
sS'1476'
p1923
I0
sS'1477'
p1924
I0
sS'1474'
p1925
I0
sS'1475'
p1926
I0
sS'3337'
p1927
I0
sS'1478'
p1928
I0
sS'1479'
p1929
I0
sS'3336'
p1930
I0
sS'1304'
p1931
I0
sS'1305'
p1932
I0
sS'1306'
p1933
I0
sS'1307'
p1934
I0
sS'1300'
p1935
I0
sS'1301'
p1936
I0
sS'1302'
p1937
I0
sS'1303'
p1938
I0
sS'3334'
p1939
I0
sS'1308'
p1940
I0
sS'1309'
p1941
I0
sS'498'
p1942
I0
sS'499'
p1943
I0
sS'4224'
p1944
I0
sS'4225'
p1945
I0
sS'4226'
p1946
I0
sS'4227'
p1947
I0
sS'4220'
p1948
I0
sS'4221'
p1949
I0
sS'4222'
p1950
I0
sS'4223'
p1951
I0
sS'24'
p1952
I0
sS'25'
p1953
I0
sS'26'
p1954
I0
sS'27'
p1955
I0
sS'20'
p1956
I0
sS'21'
p1957
I0
sS'22'
p1958
I0
sS'23'
p1959
I0
sS'28'
p1960
I0
sS'29'
p1961
I0
sS'3187'
p1962
I0
sS'3262'
p1963
I0
sS'1701'
p1964
I0
sS'3183'
p1965
I0
sS'1703'
p1966
I0
sS'3265'
p1967
I0
sS'5031'
p1968
I0
sS'4138'
p1969
I0
sS'4139'
p1970
I0
sS'4434'
p1971
I1
sS'4130'
p1972
I0
sS'4131'
p1973
I0
sS'4132'
p1974
I0
sS'4133'
p1975
I0
sS'4134'
p1976
I0
sS'4135'
p1977
I0
sS'4136'
p1978
I0
sS'4137'
p1979
I0
sS'3264'
p1980
I0
sS'4436'
p1981
I1
sS'1709'
p1982
I0
sS'4431'
p1983
I1
sS'1873'
p1984
I0
sS'4923'
p1985
I0
sS'4433'
p1986
I1
sS'4432'
p1987
I1
sS'3267'
p1988
I0
sS'4044'
p1989
I0
sS'4045'
p1990
I0
sS'4046'
p1991
I0
sS'4047'
p1992
I0
sS'4040'
p1993
I0
sS'4041'
p1994
I0
sS'4042'
p1995
I0
sS'4043'
p1996
I0
sS'4048'
p1997
I0
sS'4049'
p1998
I0
sS'3266'
p1999
I0
sS'4580'
p2000
I1
sS'7'
p2001
I0
sS'3198'
p2002
I0
sS'2288'
p2003
I0
sS'2289'
p2004
I0
sS'2280'
p2005
I0
sS'2281'
p2006
I0
sS'2282'
p2007
I0
sS'2283'
p2008
I0
sS'2284'
p2009
I0
sS'2285'
p2010
I0
sS'2286'
p2011
I0
sS'2287'
p2012
I0
sS'4549'
p2013
I1
sS'4548'
p2014
I1
sS'4541'
p2015
I1
sS'4538'
p2016
I1
sS'4543'
p2017
I1
sS'4542'
p2018
I1
sS'4545'
p2019
I1
sS'4544'
p2020
I1
sS'4547'
p2021
I1
sS'4539'
p2022
I1
sS'4828'
p2023
I0
sS'3268'
p2024
I0
sS'4829'
p2025
I0
sS'4534'
p2026
I1
sS'1661'
p2027
I0
sS'4827'
p2028
I0
sS'2132'
p2029
I0
sS'4536'
p2030
I1
sS'591'
p2031
I0
sS'4825'
p2032
I0
sS'5038'
p2033
I0
sS'5039'
p2034
I0
sS'5036'
p2035
I0
sS'5037'
p2036
I0
sS'5034'
p2037
I0
sS'5035'
p2038
I0
sS'5032'
p2039
I0
sS'5033'
p2040
I0
sS'5030'
p2041
I0
sS'4823'
p2042
I0
sS'1876'
p2043
I0
sS'1877'
p2044
I0
sS'1874'
p2045
I0
sS'1875'
p2046
I0
sS'1872'
p2047
I0
sS'4532'
p2048
I1
sS'1870'
p2049
I0
sS'1871'
p2050
I0
sS'4926'
p2051
I0
sS'4533'
p2052
I1
sS'4439'
p2053
I1
sS'4438'
p2054
I1
sS'1878'
p2055
I0
sS'1879'
p2056
I0
sS'4945'
p2057
I0
sS'4944'
p2058
I0
sS'4947'
p2059
I0
sS'4946'
p2060
I0
sS'4941'
p2061
I0
sS'4940'
p2062
I0
sS'4943'
p2063
I0
sS'183'
p2064
I0
sS'596'
p2065
I0
sS'4949'
p2066
I0
sS'4948'
p2067
I0
sS'2118'
p2068
I0
sS'2119'
p2069
I0
sS'180'
p2070
I0
sS'181'
p2071
I0
sS'186'
p2072
I0
sS'187'
p2073
I0
sS'184'
p2074
I0
sS'185'
p2075
I0
sS'2110'
p2076
I0
sS'2111'
p2077
I0
sS'188'
p2078
I0
sS'189'
p2079
I0
sS'2114'
p2080
I0
sS'2115'
p2081
I0
sS'2116'
p2082
I0
sS'2117'
p2083
I0
sS'1123'
p2084
I0
sS'1919'
p2085
I0
sS'1918'
p2086
I0
sS'602'
p2087
I0
sS'4924'
p2088
I0
sS'3289'
p2089
I0
sS'3288'
p2090
I0
sS'1911'
p2091
I0
sS'1910'
p2092
I0
sS'1913'
p2093
I0
sS'1912'
p2094
I0
sS'1915'
p2095
I0
sS'2112'
p2096
I0
sS'1917'
p2097
I0
sS'4157'
p2098
I0
sS'2113'
p2099
I0
sS'3142'
p2100
I0
sS'2024'
p2101
I0
sS'2025'
p2102
I0
sS'2026'
p2103
I0
sS'2027'
p2104
I0
sS'2020'
p2105
I0
sS'2021'
p2106
I0
sS'2022'
p2107
I0
sS'2023'
p2108
I0
sS'2028'
p2109
I0
sS'2029'
p2110
I0
sS'656'
p2111
I0
sS'4217'
p2112
I0
sS'3147'
p2113
I0
sS'4014'
p2114
I0
sS'657'
p2115
I0
sS'4591'
p2116
I0
sS'654'
p2117
I0
sS'3129'
p2118
I0
sS'4332'
p2119
I0
sS'4596'
p2120
I0
sS'4675'
p2121
I0
sS'77'
p2122
I0
sS'76'
p2123
I0
sS'75'
p2124
I0
sS'74'
p2125
I0
sS'73'
p2126
I0
sS'72'
p2127
I0
sS'71'
p2128
I0
sS'70'
p2129
I0
sS'3056'
p2130
I0
sS'3057'
p2131
I0
sS'3054'
p2132
I0
sS'3055'
p2133
I0
sS'3052'
p2134
I0
sS'3053'
p2135
I0
sS'79'
p2136
I0
sS'78'
p2137
I0
sS'1043'
p2138
I0
sS'1042'
p2139
I0
sS'1041'
p2140
I0
sS'1040'
p2141
I0
sS'1047'
p2142
I0
sS'1046'
p2143
I0
sS'1045'
p2144
I0
sS'1044'
p2145
I0
sS'4597'
p2146
I0
sS'609'
p2147
I0
sS'1048'
p2148
I0
sS'1681'
p2149
I0
sS'1680'
p2150
I0
sS'1683'
p2151
I0
sS'1682'
p2152
I0
sS'1685'
p2153
I0
sS'1684'
p2154
I0
sS'1687'
p2155
I0
sS'1686'
p2156
I0
sS'1689'
p2157
I0
sS'1688'
p2158
I0
sS'4303'
p2159
I0
sS'4302'
p2160
I0
sS'4301'
p2161
I0
sS'4300'
p2162
I0
sS'4307'
p2163
I0
sS'4306'
p2164
I0
sS'669'
p2165
I0
sS'668'
p2166
I0
sS'1263'
p2167
I0
sS'666'
p2168
I0
sS'665'
p2169
I0
sS'4308'
p2170
I0
sS'663'
p2171
I0
sS'662'
p2172
I0
sS'661'
p2173
I0
sS'660'
p2174
I0
sS'3287'
p2175
I0
sS'3286'
p2176
I0
sS'3095'
p2177
I0
sS'3285'
p2178
I0
sS'4212'
p2179
I0
sS'3128'
p2180
I0
sS'3284'
p2181
I0
sS'3122'
p2182
I0
sS'640'
p2183
I0
sS'3120'
p2184
I0
sS'3121'
p2185
I0
sS'3126'
p2186
I0
sS'3127'
p2187
I0
sS'3124'
p2188
I0
sS'1914'
p2189
I0
sS'1469'
p2190
I0
sS'1468'
p2191
I0
sS'1465'
p2192
I0
sS'520'
p2193
I0
sS'1467'
p2194
I0
sS'1916'
p2195
I0
sS'1461'
p2196
I0
sS'1460'
p2197
I0
sS'1463'
p2198
I0
sS'1019'
p2199
I0
sS'1317'
p2200
I0
sS'1316'
p2201
I0
sS'1315'
p2202
I0
sS'1314'
p2203
I0
sS'1313'
p2204
I0
sS'1312'
p2205
I0
sS'1311'
p2206
I0
sS'1310'
p2207
I0
sS'3276'
p2208
I0
sS'1319'
p2209
I0
sS'1318'
p2210
I0
sS'4239'
p2211
I0
sS'4238'
p2212
I0
sS'4237'
p2213
I0
sS'4236'
p2214
I0
sS'4235'
p2215
I0
sS'4234'
p2216
I0
sS'4233'
p2217
I0
sS'4232'
p2218
I0
sS'4231'
p2219
I0
sS'4230'
p2220
I0
sS'3400'
p2221
I0
sS'3277'
p2222
I0
sS'1010'
p2223
I0
sS'464'
p2224
I0
sS'1011'
p2225
I0
sS'4609'
p2226
I0
sS'3123'
p2227
I0
sS'319'
p2228
I0
sS'318'
p2229
I0
sS'3403'
p2230
I0
sS'4214'
p2231
I0
sS'313'
p2232
I0
sS'312'
p2233
I0
sS'311'
p2234
I0
sS'310'
p2235
I0
sS'317'
p2236
I0
sS'316'
p2237
I0
sS'315'
p2238
I0
sS'314'
p2239
I0
sS'4216'
p2240
I0
sS'4211'
p2241
I0
sS'4210'
p2242
I0
sS'4129'
p2243
I0
sS'4128'
p2244
I0
sS'1232'
p2245
I0
sS'4123'
p2246
I0
sS'4122'
p2247
I0
sS'4121'
p2248
I0
sS'4199'
p2249
I0
sS'4127'
p2250
I0
sS'4126'
p2251
I0
sS'4125'
p2252
I0
sS'4124'
p2253
I0
sS'443'
p2254
I1
sS'4219'
p2255
I0
sS'442'
p2256
I1
sS'441'
p2257
I1
sS'4707'
p2258
I0
sS'440'
p2259
I1
sS'2322'
p2260
I0
sS'4192'
p2261
I0
sS'4705'
p2262
I0
sS'1239'
p2263
I0
sS'4218'
p2264
I0
sS'4704'
p2265
I0
sS'445'
p2266
I0
sS'4703'
p2267
I0
sS'444'
p2268
I1
sS'4702'
p2269
I0
sS'4057'
p2270
I0
sS'4056'
p2271
I0
sS'4055'
p2272
I0
sS'4054'
p2273
I0
sS'4053'
p2274
I0
sS'4052'
p2275
I0
sS'4051'
p2276
I0
sS'4050'
p2277
I0
sS'4700'
p2278
I0
sS'4059'
p2279
I0
sS'4058'
p2280
I0
sS'2299'
p2281
I0
sS'2298'
p2282
I0
sS'2293'
p2283
I0
sS'2292'
p2284
I0
sS'2291'
p2285
I0
sS'2290'
p2286
I0
sS'2297'
p2287
I0
sS'2296'
p2288
I0
sS'2295'
p2289
I0
sS'2294'
p2290
I0
sS'3406'
p2291
I0
sS'4708'
p2292
I0
sS'632'
p2293
I0
sS'5029'
p2294
I0
sS'5028'
p2295
I0
sS'4333'
p2296
I0
sS'5021'
p2297
I0
sS'5020'
p2298
I0
sS'5023'
p2299
I0
sS'5022'
p2300
I0
sS'5025'
p2301
I0
sS'5024'
p2302
I0
sS'5027'
p2303
I0
sS'5026'
p2304
I0
sS'4440'
p2305
I1
sS'4441'
p2306
I1
sS'1863'
p2307
I0
sS'4443'
p2308
I1
sS'4444'
p2309
I1
sS'4445'
p2310
I1
sS'1867'
p2311
I0
sS'1866'
p2312
I0
sS'1869'
p2313
I0
sS'1868'
p2314
I0
sS'4686'
p2315
I0
sS'4931'
p2316
I0
sS'4684'
p2317
I0
sS'4685'
p2318
I0
sS'4682'
p2319
I0
sS'4935'
p2320
I0
sS'4680'
p2321
I0
sS'4681'
p2322
I0
sS'4938'
p2323
I0
sS'4939'
p2324
I0
sS'4688'
p2325
I0
sS'4689'
p2326
I0
sS'2109'
p2327
I0
sS'2108'
p2328
I0
sS'2103'
p2329
I0
sS'2102'
p2330
I0
sS'2101'
p2331
I0
sS'2100'
p2332
I0
sS'2107'
p2333
I0
sS'2106'
p2334
I0
sS'2105'
p2335
I0
sS'2104'
p2336
I0
sS'36'
p2337
I0
sS'3438'
p2338
I0
sS'1537'
p2339
I0
sS'4936'
p2340
I0
sS'1240'
p2341
I0
sS'3430'
p2342
I0
sS'3431'
p2343
I0
sS'3432'
p2344
I0
sS'3433'
p2345
I0
sS'3434'
p2346
I0
sS'1243'
p2347
I0
sS'3436'
p2348
I0
sS'3437'
p2349
I0
sS'2037'
p2350
I0
sS'4593'
p2351
I0
sS'4590'
p2352
I0
sS'1534'
p2353
I0
sS'2033'
p2354
I0
sS'4849'
p2355
I0
sS'2031'
p2356
I0
sS'4595'
p2357
I0
sS'9'
p2358
I0
sS'4845'
p2359
I0
sS'4598'
p2360
I0
sS'4847'
p2361
I0
sS'4840'
p2362
I0
sS'4841'
p2363
I0
sS'2039'
p2364
I0
sS'4843'
p2365
I0
sS'4937'
p2366
I0
sS'1531'
p2367
I0
sS'1530'
p2368
I0
sS'3397'
p2369
I0
sS'649'
p2370
I0
sS'648'
p2371
I0
sS'3236'
p2372
I0
sS'3237'
p2373
I0
sS'3234'
p2374
I0
sS'3235'
p2375
I0
sS'641'
p2376
I0
sS'1964'
p2377
I0
sS'1965'
p2378
I0
sS'1966'
p2379
I0
sS'1788'
p2380
I0
sS'1789'
p2381
I0
sS'1967'
p2382
I0
sS'4368'
p2383
I0
sS'1960'
p2384
I0
sS'1782'
p2385
I0
sS'1783'
p2386
I0
sS'1784'
p2387
I0
sS'1785'
p2388
I0
sS'1786'
p2389
I0
sS'1787'
p2390
I0
sS'3049'
p2391
I0
sS'3048'
p2392
I0
sS'1962'
p2393
I0
sS'3041'
p2394
I0
sS'3040'
p2395
I0
sS'3043'
p2396
I0
sS'1963'
p2397
I0
sS'3045'
p2398
I0
sS'3044'
p2399
I0
sS'3047'
p2400
I0
sS'3046'
p2401
I0
sS'1078'
p2402
I0
sS'1079'
p2403
I0
sS'1076'
p2404
I0
sS'1077'
p2405
I0
sS'1074'
p2406
I0
sS'1075'
p2407
I0
sS'1072'
p2408
I0
sS'1073'
p2409
I0
sS'1070'
p2410
I0
sS'1071'
p2411
I0
sS'1678'
p2412
I0
sS'1679'
p2413
I0
sS'1674'
p2414
I0
sS'1675'
p2415
I0
sS'1676'
p2416
I0
sS'1677'
p2417
I0
sS'1670'
p2418
I0
sS'1671'
p2419
I0
sS'1672'
p2420
I0
sS'1673'
p2421
I0
sS'1094'
p2422
I0
sS'1095'
p2423
I0
sS'1096'
p2424
I0
sS'1097'
p2425
I0
sS'1090'
p2426
I0
sS'1091'
p2427
I0
sS'1092'
p2428
I0
sS'1093'
p2429
I0
sS'4336'
p2430
I0
sS'4337'
p2431
I0
sS'4334'
p2432
I0
sS'4335'
p2433
I0
sS'670'
p2434
I0
sS'671'
p2435
I0
sS'672'
p2436
I0
sS'673'
p2437
I0
sS'3135'
p2438
I0
sS'3134'
p2439
I0
sS'3137'
p2440
I0
sS'3136'
p2441
I0
sS'3131'
p2442
I0
sS'3130'
p2443
I0
sS'3133'
p2444
I0
sS'3132'
p2445
I0
sS'3139'
p2446
I0
sS'3138'
p2447
I0
sS'3396'
p2448
I0
sS'645'
p2449
I0
sS'1418'
p2450
I0
sS'1419'
p2451
I0
sS'1410'
p2452
I0
sS'1411'
p2453
I0
sS'1412'
p2454
I0
sS'1413'
p2455
I0
sS'1414'
p2456
I0
sS'1415'
p2457
I0
sS'1416'
p2458
I0
sS'1417'
p2459
I0
sS'1322'
p2460
I0
sS'1323'
p2461
I0
sS'1320'
p2462
I0
sS'1321'
p2463
I0
sS'1326'
p2464
I0
sS'1327'
p2465
I0
sS'1324'
p2466
I0
sS'1325'
p2467
I0
sS'1328'
p2468
I0
sS'1329'
p2469
I0
sS'4647'
p2470
I0
sS'4208'
p2471
I0
sS'4209'
p2472
I0
sS'4202'
p2473
I0
sS'4203'
p2474
I0
sS'4200'
p2475
I0
sS'5'
p2476
I0
sS'4206'
p2477
I0
sS'4207'
p2478
I0
sS'4204'
p2479
I0
sS'4205'
p2480
I0
sS'647'
p2481
I0
sS'4636'
p2482
I0
sS'1524'
p2483
I0
sS'1525'
p2484
I0
sS'1254'
p2485
I0
sS'1527'
p2486
I0
sS'1520'
p2487
I0
sS'1521'
p2488
I0
sS'1522'
p2489
I0
sS'1251'
p2490
I0
sS'1528'
p2491
I0
sS'1529'
p2492
I0
sS'1258'
p2493
I0
sS'1259'
p2494
I0
sS'308'
p2495
I0
sS'309'
p2496
I0
sS'300'
p2497
I0
sS'301'
p2498
I0
sS'302'
p2499
I0
sS'303'
p2500
I0
sS'304'
p2501
I0
sS'305'
p2502
I0
sS'306'
p2503
I0
sS'307'
p2504
I0
sS'4116'
p2505
I0
sS'4117'
p2506
I0
sS'4114'
p2507
I0
sS'4115'
p2508
I0
sS'4112'
p2509
I0
sS'4113'
p2510
I0
sS'4110'
p2511
I0
sS'4111'
p2512
I0
sS'4118'
p2513
I0
sS'4119'
p2514
I0
sS'3414'
p2515
I0
sS'4448'
p2516
I1
sS'3058'
p2517
I0
sS'3059'
p2518
I0
sS'5012'
p2519
I0
sS'5013'
p2520
I0
sS'4449'
p2521
I1
sS'4062'
p2522
I0
sS'4063'
p2523
I0
sS'4060'
p2524
I0
sS'4061'
p2525
I0
sS'4066'
p2526
I0
sS'4067'
p2527
I0
sS'4064'
p2528
I0
sS'4065'
p2529
I0
sS'4068'
p2530
I0
sS'4069'
p2531
I0
sS'3412'
p2532
I0
sS'5018'
p2533
I0
sS'3050'
p2534
I0
sS'4892'
p2535
I0
sS'4639'
p2536
I0
sS'3051'
p2537
I0
sS'1446'
p2538
I0
sS'473'
p2539
I0
sS'3413'
p2540
I0
sS'623'
p2541
I0
sS'470'
p2542
I0
sS'4865'
p2543
I0
sS'114'
p2544
I0
sS'2035'
p2545
I0
sS'622'
p2546
I0
sS'1049'
p2547
I0
sS'471'
p2548
I0
sS'4624'
p2549
I0
sS'112'
p2550
I0
sS'4453'
p2551
I1
sS'4452'
p2552
I1
sS'4451'
p2553
I1
sS'4450'
p2554
I1
sS'1898'
p2555
I0
sS'4456'
p2556
I1
sS'4455'
p2557
I1
sS'4454'
p2558
I1
sS'1894'
p2559
I0
sS'1895'
p2560
I0
sS'4459'
p2561
I1
sS'1897'
p2562
I0
sS'1890'
p2563
I0
sS'1891'
p2564
I0
sS'1892'
p2565
I0
sS'1893'
p2566
I0
sS'4691'
p2567
I0
sS'4690'
p2568
I0
sS'2134'
p2569
I0
sS'4920'
p2570
I0
sS'4695'
p2571
I0
sS'4694'
p2572
I0
sS'4697'
p2573
I0
sS'2131'
p2574
I0
sS'4699'
p2575
I0
sS'4698'
p2576
I0
sS'4929'
p2577
I0
sS'4928'
p2578
I0
sS'2138'
p2579
I0
sS'2139'
p2580
I0
sS'477'
p2581
I0
sS'4803'
p2582
I0
sS'3416'
p2583
I0
sS'3429'
p2584
I0
sS'3428'
p2585
I0
sS'3423'
p2586
I0
sS'3422'
p2587
I0
sS'3421'
p2588
I0
sS'3420'
p2589
I0
sS'3427'
p2590
I0
sS'3426'
p2591
I0
sS'3425'
p2592
I0
sS'3424'
p2593
I0
sS'2002'
p2594
I0
sS'4417'
p2595
I1
sS'2001'
p2596
I0
sS'4589'
p2597
I0
sS'2007'
p2598
I0
sS'2004'
p2599
I0
sS'4416'
p2600
I1
sS'4585'
p2601
I1
sS'4856'
p2602
I0
sS'2008'
p2603
I0
sS'2009'
p2604
I0
sS'4853'
p2605
I0
sS'4415'
p2606
I1
sS'4851'
p2607
I0
sS'4582'
p2608
I1
sS'1853'
p2609
I0
sS'2034'
p2610
I0
sS'4413'
p2611
I1
sS'1269'
p2612
I0
sS'1855'
p2613
I0
sS'1544'
p2614
I0
sS'1268'
p2615
I0
sS'1856'
p2616
I0
sS'4577'
p2617
I1
sS'1857'
p2618
I0
sS'4395'
p2619
I1
sS'4305'
p2620
I0
sS'4304'
p2621
I0
sS'667'
p2622
I0
sS'1262'
p2623
I0
sS'717'
p2624
I0
sS'4309'
p2625
I0
sS'1799'
p2626
I0
sS'1798'
p2627
I0
sS'2174'
p2628
I1
sS'719'
p2629
I0
sS'718'
p2630
I0
sS'1793'
p2631
I0
sS'1792'
p2632
I0
sS'1791'
p2633
I0
sS'1790'
p2634
I0
sS'713'
p2635
I0
sS'712'
p2636
I0
sS'1795'
p2637
I0
sS'1794'
p2638
I0
sS'1265'
p2639
I0
sS'716'
p2640
I0
sS'1707'
p2641
I0
sS'4965'
p2642
I0
sS'1069'
p2643
I0
sS'1068'
p2644
I0
sS'4964'
p2645
I0
sS'1061'
p2646
I0
sS'1060'
p2647
I0
sS'1063'
p2648
I0
sS'1062'
p2649
I0
sS'1065'
p2650
I0
sS'1064'
p2651
I0
sS'1067'
p2652
I0
sS'1066'
p2653
I0
sS'1669'
p2654
I0
sS'1668'
p2655
I0
sS'1667'
p2656
I0
sS'1666'
p2657
I0
sS'1665'
p2658
I0
sS'1664'
p2659
I0
sS'1663'
p2660
I0
sS'1662'
p2661
I0
sS'4435'
p2662
I1
sS'1660'
p2663
I0
sS'1087'
p2664
I0
sS'1086'
p2665
I0
sS'1085'
p2666
I0
sS'1084'
p2667
I0
sS'1083'
p2668
I0
sS'1082'
p2669
I0
sS'1081'
p2670
I0
sS'1080'
p2671
I0
sS'4321'
p2672
I0
sS'4320'
p2673
I0
sS'4323'
p2674
I0
sS'4322'
p2675
I0
sS'4325'
p2676
I0
sS'4324'
p2677
I0
sS'1089'
p2678
I0
sS'1088'
p2679
I0
sS'3140'
p2680
I0
sS'3141'
p2681
I0
sS'714'
p2682
I0
sS'3143'
p2683
I0
sS'3144'
p2684
I0
sS'3145'
p2685
I0
sS'3146'
p2686
I0
sS'1526'
p2687
I0
sS'3148'
p2688
I0
sS'3149'
p2689
I0
sS'3386'
p2690
I0
sS'3387'
p2691
I0
sS'3384'
p2692
I0
sS'3385'
p2693
I0
sS'3382'
p2694
I0
sS'3383'
p2695
I0
sS'3380'
p2696
I0
sS'3381'
p2697
I0
sS'3388'
p2698
I0
sS'3389'
p2699
I0
sS'1409'
p2700
I0
sS'1408'
p2701
I0
sS'1403'
p2702
I0
sS'1402'
p2703
I0
sS'4437'
p2704
I1
sS'1400'
p2705
I0
sS'1407'
p2706
I0
sS'1406'
p2707
I0
sS'1405'
p2708
I0
sS'1404'
p2709
I0
sS'4215'
p2710
I0
sS'1546'
p2711
I0
sS'449'
p2712
I0
sS'448'
p2713
I0
sS'1339'
p2714
I0
sS'1338'
p2715
I0
sS'4213'
p2716
I0
sS'1547'
p2717
I0
sS'1335'
p2718
I0
sS'1334'
p2719
I0
sS'1337'
p2720
I0
sS'1336'
p2721
I0
sS'447'
p2722
I0
sS'446'
p2723
I0
sS'1333'
p2724
I0
sS'1332'
p2725
I0
sS'1545'
p2726
I0
sS'4623'
p2727
I0
sS'1542'
p2728
I0
sS'1543'
p2729
I0
sS'3261'
p2730
I0
sS'39'
p2731
I0
sS'38'
p2732
I0
sS'4201'
p2733
I0
sS'1540'
p2734
I0
sS'3260'
p2735
I0
sS'33'
p2736
I0
sS'32'
p2737
I0
sS'31'
p2738
I0
sS'30'
p2739
I0
sS'37'
p2740
I0
sS'1100'
p2741
I0
sS'35'
p2742
I0
sS'34'
p2743
I0
sS'1241'
p2744
I0
sS'1536'
p2745
I0
sS'1535'
p2746
I0
sS'1242'
p2747
I0
sS'1245'
p2748
I0
sS'1244'
p2749
I0
sS'1247'
p2750
I0
sS'1246'
p2751
I0
sS'1249'
p2752
I0
sS'1248'
p2753
I0
sS'3098'
p2754
I0
sS'3099'
p2755
I0
sS'1539'
p2756
I0
sS'1538'
p2757
I0
sS'339'
p2758
I0
sS'338'
p2759
I0
sS'335'
p2760
I0
sS'334'
p2761
I0
sS'337'
p2762
I0
sS'336'
p2763
I0
sS'331'
p2764
I0
sS'330'
p2765
I0
sS'333'
p2766
I0
sS'332'
p2767
I0
sS'4101'
p2768
I0
sS'4100'
p2769
I0
sS'4103'
p2770
I0
sS'4102'
p2771
I0
sS'4430'
p2772
I1
sS'4104'
p2773
I0
sS'4107'
p2774
I0
sS'4106'
p2775
I0
sS'4109'
p2776
I0
sS'4108'
p2777
I0
sS'3125'
p2778
I0
sS'1295'
p2779
I0
sS'3377'
p2780
I0
sS'2032'
p2781
I0
sS'3417'
p2782
I0
sS'1533'
p2783
I0
sS'3195'
p2784
I0
sS'1464'
p2785
I0
sS'8'
p2786
I0
sS'1466'
p2787
I0
sS'4079'
p2788
I0
sS'4078'
p2789
I0
sS'4075'
p2790
I0
sS'4074'
p2791
I0
sS'4077'
p2792
I0
sS'4076'
p2793
I0
sS'4071'
p2794
I0
sS'4070'
p2795
I0
sS'4073'
p2796
I0
sS'4072'
p2797
I0
sS'1462'
p2798
I0
sS'1352'
p2799
I0
sS'1101'
p2800
I0
sS'234'
p2801
I0
sS'235'
p2802
I0
sS'236'
p2803
I0
sS'4612'
p2804
I0
sS'4615'
p2805
I0
sS'231'
p2806
I0
sS'4617'
p2807
I0
sS'1350'
p2808
I0
sS'4616'
p2809
I0
sS'2148'
p2810
I0
sS'4468'
p2811
I1
sS'1888'
p2812
I0
sS'4466'
p2813
I1
sS'4467'
p2814
I1
sS'4464'
p2815
I1
sS'4465'
p2816
I1
sS'4462'
p2817
I1
sS'4463'
p2818
I1
sS'4460'
p2819
I1
sS'4461'
p2820
I1
sS'2121'
p2821
I0
sS'2120'
p2822
I0
sS'2123'
p2823
I0
sS'2122'
p2824
I0
sS'2125'
p2825
I0
sS'2124'
p2826
I0
sS'4918'
p2827
I0
sS'2126'
p2828
I0
sS'4916'
p2829
I0
sS'4917'
p2830
I0
sS'4914'
p2831
I0
sS'4915'
p2832
I0
sS'4912'
p2833
I0
sS'4913'
p2834
I0
sS'4662'
p2835
I0
sS'4911'
p2836
I0
sS'3038'
p2837
I0
sS'642'
p2838
I0
sS'3039'
p2839
I0
sS'133'
p2840
I0
sS'132'
p2841
I0
sS'131'
p2842
I0
sS'130'
p2843
I0
sS'137'
p2844
I0
sS'136'
p2845
I0
sS'135'
p2846
I0
sS'134'
p2847
I0
sS'139'
p2848
I0
sS'138'
p2849
I0
sS'3418'
p2850
I0
sS'4864'
p2851
I0
sS'4868'
p2852
I0
sS'4869'
p2853
I0
sS'2019'
p2854
I0
sS'2018'
p2855
I0
sS'2015'
p2856
I0
sS'2014'
p2857
I0
sS'2017'
p2858
I0
sS'2016'
p2859
I0
sS'4866'
p2860
I0
sS'2010'
p2861
I0
sS'2013'
p2862
I0
sS'182'
p2863
I0
sS'3335'
p2864
I0
sS'3034'
p2865
I0
sS'4484'
p2866
I1
sS'4485'
p2867
I1
sS'4486'
p2868
I1
sS'4487'
p2869
I1
sS'4480'
p2870
I1
sS'4481'
p2871
I1
sS'4482'
p2872
I1
sS'4483'
p2873
I1
sS'4488'
p2874
I1
sS'4489'
p2875
I1
sS'4243'
p2876
I0
sS'708'
p2877
I0
sS'709'
p2878
I0
sS'3035'
p2879
I0
sS'704'
p2880
I0
sS'705'
p2881
I0
sS'706'
p2882
I0
sS'707'
p2883
I0
sS'700'
p2884
I0
sS'701'
p2885
I0
sS'702'
p2886
I0
sS'703'
p2887
I0
sS'88'
p2888
I0
sS'89'
p2889
I0
sS'4793'
p2890
I0
sS'82'
p2891
I0
sS'83'
p2892
I0
sS'80'
p2893
I0
sS'81'
p2894
I0
sS'86'
p2895
I0
sS'87'
p2896
I0
sS'84'
p2897
I0
sS'85'
p2898
I0
sS'1658'
p2899
I0
sS'1659'
p2900
I0
sS'1652'
p2901
I0
sS'1653'
p2902
I0
sS'1650'
p2903
I0
sS'1651'
p2904
I0
sS'1656'
p2905
I0
sS'1657'
p2906
I0
sS'1654'
p2907
I0
sS'1655'
p2908
I0
sS'586'
p2909
I0
sS'587'
p2910
I0
sS'584'
p2911
I0
sS'585'
p2912
I0
sS'582'
p2913
I0
sS'583'
p2914
I0
sS'580'
p2915
I0
sS'581'
p2916
I0
sS'3216'
p2917
I0
sS'588'
p2918
I0
sS'589'
p2919
I0
sS'3153'
p2920
I0
sS'3152'
p2921
I0
sS'1261'
p2922
I0
sS'3150'
p2923
I0
sS'3157'
p2924
I0
sS'3156'
p2925
I0
sS'3155'
p2926
I0
sS'3154'
p2927
I0
sS'3210'
p2928
I0
sS'3159'
p2929
I0
sS'3158'
p2930
I0
sS'1348'
p2931
I0
sS'3211'
p2932
I0
sS'1436'
p2933
I0
sS'1437'
p2934
I0
sS'1434'
p2935
I0
sS'1435'
p2936
I0
sS'1432'
p2937
I0
sS'1433'
p2938
I0
sS'1430'
p2939
I0
sS'1431'
p2940
I0
sS'3399'
p2941
I0
sS'1380'
p2942
I0
sS'3213'
p2943
I0
sS'1438'
p2944
I0
sS'1439'
p2945
I0
sS'1260'
p2946
I0
sS'1349'
p2947
I0
sS'1541'
p2948
I0
sS'4260'
p2949
I0
sS'4261'
p2950
I0
sS'4262'
p2951
I0
sS'4263'
p2952
I0
sS'4264'
p2953
I0
sS'1889'
p2954
I0
sS'4266'
p2955
I0
sS'4267'
p2956
I0
sS'450'
p2957
I0
sS'451'
p2958
I0
sS'452'
p2959
I0
sS'1343'
p2960
I0
sS'1344'
p2961
I0
sS'1345'
p2962
I0
sS'1267'
p2963
I0
sS'457'
p2964
I0
sS'1377'
p2965
I0
sS'1887'
p2966
I0
sS'1886'
p2967
I0
sS'1885'
p2968
I0
sS'517'
p2969
I0
sS'1884'
p2970
I0
sS'3263'
p2971
I0
sS'3259'
p2972
I0
sS'1883'
p2973
I0
sS'1266'
p2974
I0
sS'1882'
p2975
I0
sS'1502'
p2976
I0
sS'1503'
p2977
I0
sS'1500'
p2978
I0
sS'1501'
p2979
I0
sS'1506'
p2980
I0
sS'1507'
p2981
I0
sS'1504'
p2982
I0
sS'1505'
p2983
I0
sS'3085'
p2984
I0
sS'3084'
p2985
I0
sS'1508'
p2986
I0
sS'1509'
p2987
I0
sS'3081'
p2988
I0
sS'3080'
p2989
I0
sS'658'
p2990
I0
sS'659'
p2991
I0
sS'4668'
p2992
I0
sS'4669'
p2993
I0
sS'2127'
p2994
I0
sS'1598'
p2995
I0
sS'1264'
p2996
I0
sS'4919'
p2997
I0
sS'2129'
p2998
I0
sS'2128'
p2999
I0
sS'4666'
p3000
I0
sS'4667'
p3001
I0
sS'495'
p3002
I0
sS'4660'
p3003
I0
sS'4665'
p3004
I0
sS'4661'
p3005
I0
sS'1292'
p3006
I0
sS'4910'
p3007
I0
sS'4663'
p3008
I0
sS'4008'
p3009
I0
sS'4009'
p3010
I0
sS'4860'
p3011
I0
sS'1376'
p3012
I0
sS'4001'
p3013
I0
sS'4002'
p3014
I0
sS'4003'
p3015
I0
sS'4004'
p3016
I0
sS'4005'
p3017
I0
sS'4006'
p3018
I0
sS'4007'
p3019
I0
sS'322'
p3020
I0
sS'323'
p3021
I0
sS'320'
p3022
I0
sS'321'
p3023
I0
sS'326'
p3024
I0
sS'327'
p3025
I0
sS'324'
p3026
I0
sS'325'
p3027
I0
sS'328'
p3028
I0
sS'329'
p3029
I0
sS'3365'
p3030
I0
sS'4942'
p3031
I0
sS'1340'
p3032
I0
sS'4271'
p3033
I0
sS'1881'
p3034
I0
sS'4714'
p3035
I0
sS'4715'
p3036
I0
sS'4716'
p3037
I0
sS'4717'
p3038
I0
sS'4710'
p3039
I0
sS'4711'
p3040
I0
sS'4712'
p3041
I0
sS'1594'
p3042
I0
sS'1341'
p3043
I0
sS'4719'
p3044
I0
sS'3073'
p3045
I0
sS'1880'
p3046
I0
sS'3074'
p3047
I0
sS'3075'
p3048
I0
sS'4120'
p3049
I0
sS'3076'
p3050
I0
sS'1342'
p3051
I0
sS'1592'
p3052
I0
sS'4479'
p3053
I1
sS'4478'
p3054
I1
sS'1278'
p3055
I0
sS'4471'
p3056
I1
sS'4470'
p3057
I1
sS'4473'
p3058
I1
sS'4472'
p3059
I1
sS'4475'
p3060
I1
sS'4474'
p3061
I1
sS'4477'
p3062
I1
sS'4476'
p3063
I1
sS'4909'
p3064
I0
sS'4908'
p3065
I0
sS'4679'
p3066
I0
sS'4678'
p3067
I0
sS'4677'
p3068
I0
sS'4900'
p3069
I0
sS'4903'
p3070
I0
sS'4902'
p3071
I0
sS'4905'
p3072
I0
sS'4904'
p3073
I0
sS'4671'
p3074
I0
sS'4670'
p3075
I0
sS'1279'
p3076
I0
sS'3252'
p3077
I0
sS'2248'
p3078
I0
sS'2249'
p3079
I0
sS'2244'
p3080
I0
sS'2012'
p3081
I0
sS'2246'
p3082
I0
sS'2247'
p3083
I0
sS'2240'
p3084
I0
sS'2241'
p3085
I0
sS'2242'
p3086
I0
sS'2243'
p3087
I0
sS'120'
p3088
I0
sS'121'
p3089
I0
sS'122'
p3090
I0
sS'1026'
p3091
I0
sS'124'
p3092
I0
sS'125'
p3093
I0
sS'126'
p3094
I0
sS'127'
p3095
I0
sS'128'
p3096
I0
sS'129'
p3097
I0
sS'4875'
p3098
I0
sS'4874'
p3099
I0
sS'4877'
p3100
I0
sS'4876'
p3101
I0
sS'4871'
p3102
I0
sS'4870'
p3103
I0
sS'4873'
p3104
I0
sS'4872'
p3105
I0
sS'1921'
p3106
I0
sS'3378'
p3107
I0
sS'4879'
p3108
I0
sS'4878'
p3109
I0
sS'2068'
p3110
I0
sS'2069'
p3111
I0
sS'3415'
p3112
I0
sS'3376'
p3113
I0
sS'2060'
p3114
I0
sS'2061'
p3115
I0
sS'2062'
p3116
I0
sS'2063'
p3117
I0
sS'2064'
p3118
I0
sS'2065'
p3119
I0
sS'2066'
p3120
I0
sS'2067'
p3121
I0
sS'1346'
p3122
I0
sS'3374'
p3123
I0
sS'3410'
p3124
I0
sS'3373'
p3125
I0
sS'3411'
p3126
I0
sS'3372'
p3127
I0
sS'3371'
p3128
I0
sS'3370'
p3129
I0
sS'1134'
p3130
I0
sS'1347'
p3131
I0
sS'3077'
p3132
I0
sS'4497'
p3133
I1
sS'4496'
p3134
I1
sS'4495'
p3135
I1
sS'4494'
p3136
I1
sS'4493'
p3137
I1
sS'4492'
p3138
I1
sS'4491'
p3139
I1
sS'4490'
p3140
I1
sS'722'
p3141
I0
sS'3419'
p3142
I0
sS'4499'
p3143
I1
sS'4498'
p3144
I1
sS'3257'
p3145
I0
sS'1397'
p3146
I0
sS'1559'
p3147
I0
sS'1645'
p3148
I0
sS'1644'
p3149
I0
sS'1647'
p3150
I0
sS'1646'
p3151
I0
sS'1641'
p3152
I0
sS'1640'
p3153
I0
sS'1643'
p3154
I0
sS'1642'
p3155
I0
sS'1396'
p3156
I0
sS'1649'
p3157
I0
sS'1648'
p3158
I0
sS'4228'
p3159
I0
sS'728'
p3160
I0
sS'729'
p3161
I0
sS'605'
p3162
I0
sS'579'
p3163
I0
sS'578'
p3164
I0
sS'1270'
p3165
I0
sS'4364'
p3166
I0
sS'573'
p3167
I0
sS'4428'
p3168
I1
sS'571'
p3169
I0
sS'570'
p3170
I0
sS'4229'
p3171
I0
sS'607'
p3172
I0
sS'575'
p3173
I0
sS'574'
p3174
I0
sS'606'
p3175
I0
sS'2161'
p3176
I0
sS'3168'
p3177
I0
sS'3169'
p3178
I0
sS'3166'
p3179
I0
sS'601'
p3180
I0
sS'3164'
p3181
I0
sS'3165'
p3182
I0
sS'3162'
p3183
I0
sS'3163'
p3184
I0
sS'3160'
p3185
I0
sS'600'
p3186
I0
sS'1421'
p3187
I0
sS'1420'
p3188
I0
sS'1423'
p3189
I0
sS'1422'
p3190
I0
sS'1425'
p3191
I0
sS'1424'
p3192
I0
sS'1427'
p3193
I0
sS'1426'
p3194
I0
sS'1429'
p3195
I0
sS'1428'
p3196
I0
sS'3366'
p3197
I0
sS'4362'
p3198
I0
sS'3360'
p3199
I0
sS'2156'
p3200
I0
sS'3362'
p3201
I0
sS'3363'
p3202
I0
sS'2160'
p3203
I0
sS'1899'
p3204
I0
sS'2150'
p3205
I0
sS'2151'
p3206
I0
sS'4273'
p3207
I0
sS'4272'
p3208
I0
sS'1359'
p3209
I0
sS'1358'
p3210
I0
sS'469'
p3211
I0
sS'468'
p3212
I0
sS'4275'
p3213
I0
sS'4274'
p3214
I0
sS'1353'
p3215
I0
sS'4369'
p3216
I0
sS'4279'
p3217
I0
sS'4278'
p3218
I0
sS'1357'
p3219
I0
sS'1356'
p3220
I0
sS'1355'
p3221
I0
sS'608'
p3222
I0
sS'4862'
p3223
I0
sS'4863'
p3224
I0
sS'2006'
p3225
I0
sS'4861'
p3226
I0
sS'2011'
p3227
I0
sS'4867'
p3228
I0
sS'1519'
p3229
I0
sS'1518'
p3230
I0
sS'1515'
p3231
I0
sS'1514'
p3232
I0
sS'1517'
p3233
I0
sS'1516'
p3234
I0
sS'1511'
p3235
I0
sS'1510'
p3236
I0
sS'1513'
p3237
I0
sS'1512'
p3238
I0
sS'3439'
p3239
I0
sS'3395'
p3240
I0
sS'4859'
p3241
I0
sS'280'
p3242
I0
sS'3184'
p3243
I0
sS'3185'
p3244
I0
sS'3186'
p3245
I0
sS'3394'
p3246
I0
sS'3180'
p3247
I0
sS'3181'
p3248
I0
sS'3182'
p3249
I0
sS'2005'
p3250
I0
sS'3188'
p3251
I0
sS'3189'
p3252
I0
sS'3214'
p3253
I0
sS'1896'
p3254
I0
sS'1138'
p3255
I0
sS'1277'
p3256
I0
sS'3109'
p3257
I0
sS'4019'
p3258
I0
sS'4018'
p3259
I0
sS'4013'
p3260
I0
sS'4012'
p3261
I0
sS'4011'
p3262
I0
sS'4010'
p3263
I0
sS'4017'
p3264
I0
sS'4016'
p3265
I0
sS'4015'
p3266
I0
sS'453'
p3267
I0
sS'357'
p3268
I0
sS'356'
p3269
I0
sS'355'
p3270
I0
sS'354'
p3271
I0
sS'353'
p3272
I0
sS'352'
p3273
I0
sS'351'
p3274
I0
sS'350'
p3275
I0
sS'359'
p3276
I0
sS'358'
p3277
I0
sS'3107'
p3278
I0
sS'4855'
p3279
I0
sS'1354'
p3280
I0
sS'1033'
p3281
I0
sS'2323'
p3282
I0
sS'1111'
p3283
I0
sS'2321'
p3284
I0
sS'2320'
p3285
I0
sS'2327'
p3286
I0
sS'2326'
p3287
I0
sS'2325'
p3288
I0
sS'2324'
p3289
I0
sS'2329'
p3290
I0
sS'2328'
p3291
I0
sS'4105'
p3292
I0
sS'4709'
p3293
I0
sS'4854'
p3294
I0
sS'289'
p3295
I0
sS'288'
p3296
I0
sS'1444'
p3297
I0
sS'281'
p3298
I0
sS'1115'
p3299
I0
sS'283'
p3300
I0
sS'282'
p3301
I0
sS'285'
p3302
I0
sS'284'
p3303
I0
sS'287'
p3304
I0
sS'1442'
p3305
I0
sS'1117'
p3306
I0
sS'1440'
p3307
I0
sS'3167'
p3308
I0
sS'263'
p3309
I0
sS'262'
p3310
I0
sS'261'
p3311
I0
sS'260'
p3312
I0
sS'267'
p3313
I0
sS'266'
p3314
I0
sS'265'
p3315
I0
sS'264'
p3316
I0
sS'286'
p3317
I0
sS'269'
p3318
I0
sS'268'
p3319
I0
sS'1290'
p3320
I0
sS'4633'
p3321
I0
sS'4648'
p3322
I0
sS'4649'
p3323
I0
sS'4632'
p3324
I0
sS'4642'
p3325
I0
sS'4643'
p3326
I0
sS'4640'
p3327
I0
sS'4641'
p3328
I0
sS'4646'
p3329
I0
sS'258'
p3330
I0
sS'4644'
p3331
I0
sS'4645'
p3332
I0
sS'4630'
p3333
I0
sS'1294'
p3334
I0
sS'2259'
p3335
I0
sS'2258'
p3336
I0
sS'2257'
p3337
I0
sS'2256'
p3338
I0
sS'2255'
p3339
I0
sS'2254'
p3340
I0
sS'2253'
p3341
I0
sS'2252'
p3342
I0
sS'2251'
p3343
I0
sS'2250'
p3344
I0
sS'4635'
p3345
I0
sS'4634'
p3346
I0
sS'115'
p3347
I0
sS'252'
p3348
I0
sS'117'
p3349
I0
sS'116'
p3350
I0
sS'111'
p3351
I0
sS'110'
p3352
I0
sS'113'
p3353
I0
sS'2199'
p3354
I1
sS'119'
p3355
I0
sS'118'
p3356
I0
sS'4800'
p3357
I0
sS'4801'
p3358
I0
sS'4802'
p3359
I0
sS'4638'
p3360
I0
sS'4804'
p3361
I0
sS'4805'
p3362
I0
sS'4806'
p3363
I0
sS'4807'
p3364
I0
sS'4808'
p3365
I0
sS'4809'
p3366
I0
sS'1797'
p3367
I0
sS'2079'
p3368
I0
sS'2078'
p3369
I0
sS'1331'
p3370
I0
sS'2073'
p3371
I0
sS'2072'
p3372
I0
sS'2071'
p3373
I0
sS'2070'
p3374
I0
sS'2077'
p3375
I0
sS'2076'
p3376
I0
sS'2075'
p3377
I0
sS'2074'
p3378
I0
sS'1388'
p3379
I0
sS'4098'
p3380
I0
sS'1796'
p3381
I0
sS'1035'
p3382
I0
sS'1330'
p3383
I0
sS'1389'
p3384
I0
sS'1823'
p3385
I0
sS'4968'
p3386
I0
sS'3204'
p3387
I0
sS'1209'
p3388
I0
sS'3220'
p3389
I0
sS'488'
p3390
I0
sS'1208'
p3391
I0
sS'3223'
p3392
I0
sS'1630'
p3393
I0
sS'1631'
p3394
I0
sS'1632'
p3395
I0
sS'1633'
p3396
I0
sS'1634'
p3397
I0
sS'1635'
p3398
I0
sS'1636'
p3399
I0
sS'1637'
p3400
I0
sS'1638'
p3401
I0
sS'1639'
p3402
I0
sS'604'
p3403
I0
sS'3219'
p3404
I0
sS'482'
p3405
I0
sS'3222'
p3406
I0
sS'568'
p3407
I0
sS'569'
p3408
I0
sS'4399'
p3409
I1
sS'560'
p3410
I0
sS'561'
p3411
I0
sS'562'
p3412
I0
sS'563'
p3413
I0
sS'564'
p3414
I0
sS'565'
p3415
I0
sS'566'
p3416
I0
sS'567'
p3417
I0
sS'3179'
p3418
I0
sS'3178'
p3419
I0
sS'3171'
p3420
I0
sS'3170'
p3421
I0
sS'3173'
p3422
I0
sS'3172'
p3423
I0
sS'3175'
p3424
I0
sS'3174'
p3425
I0
sS'3177'
p3426
I0
sS'3176'
p3427
I0
sS'1483'
p3428
I0
sS'1188'
p3429
I0
sS'1189'
p3430
I0
sS'1186'
p3431
I0
sS'1187'
p3432
I0
sS'1184'
p3433
I0
sS'1185'
p3434
I0
sS'1182'
p3435
I0
sS'1183'
p3436
I0
sS'1180'
p3437
I0
sS'1181'
p3438
I0
sS'726'
p3439
I0
sS'727'
p3440
I0
sS'724'
p3441
I0
sS'1480'
p3442
I0
sS'1748'
p3443
I0
sS'1749'
p3444
I0
sS'720'
p3445
I0
sS'721'
p3446
I0
sS'1744'
p3447
I0
sS'1745'
p3448
I0
sS'1746'
p3449
I0
sS'1747'
p3450
I0
sS'1740'
p3451
I0
sS'1741'
p3452
I0
sS'1742'
p3453
I0
sS'1743'
p3454
I0
sS'1164'
p3455
I0
sS'1165'
p3456
I0
sS'1166'
p3457
I0
sS'1167'
p3458
I0
sS'1160'
p3459
I0
sS'1161'
p3460
I0
sS'1162'
p3461
I0
sS'1163'
p3462
I0
sS'4246'
p3463
I0
sS'4247'
p3464
I0
sS'4244'
p3465
I0
sS'4245'
p3466
I0
sS'1168'
p3467
I0
sS'1169'
p3468
I0
sS'4240'
p3469
I0
sS'4241'
p3470
I0
sS'3092'
p3471
I0
sS'3304'
p3472
I0
sS'472'
p3473
I0
sS'3305'
p3474
I0
sS'48'
p3475
I0
sS'49'
p3476
I0
sS'46'
p3477
I0
sS'47'
p3478
I0
sS'44'
p3479
I0
sS'45'
p3480
I0
sS'42'
p3481
I0
sS'43'
p3482
I0
sS'40'
p3483
I0
sS'41'
p3484
I0
sS'1568'
p3485
I0
sS'1569'
p3486
I0
sS'1298'
p3487
I0
sS'1299'
p3488
I0
sS'1560'
p3489
I0
sS'1561'
p3490
I0
sS'1562'
p3491
I0
sS'1563'
p3492
I0
sS'1564'
p3493
I0
sS'1565'
p3494
I0
sS'1566'
p3495
I0
sS'1567'
p3496
I0
sS'1291'
p3497
I0
sS'474'
p3498
I0
sS'4693'
p3499
I0
sS'4848'
p3500
I0
sS'1381'
p3501
I0
sS'4398'
p3502
I1
sS'1861'
p3503
I0
sS'1860'
p3504
I0
sS'4390'
p3505
I1
sS'4391'
p3506
I1
sS'4392'
p3507
I1
sS'4393'
p3508
I1
sS'4394'
p3509
I1
sS'4442'
p3510
I1
sS'4396'
p3511
I1
sS'4397'
p3512
I1
sS'1366'
p3513
I0
sS'1367'
p3514
I0
sS'1364'
p3515
I0
sS'1365'
p3516
I0
sS'1362'
p3517
I0
sS'1363'
p3518
I0
sS'1360'
p3519
I0
sS'1361'
p3520
I0
sS'1865'
p3521
I0
sS'478'
p3522
I0
sS'479'
p3523
I0
sS'1368'
p3524
I0
sS'1369'
p3525
I0
s.