(dp0
S'4026'
p1
I0
sS'4027'
p2
I0
sS'4024'
p3
I0
sS'4025'
p4
I0
sS'4022'
p5
I0
sS'4023'
p6
I0
sS'4020'
p7
I0
sS'165'
p8
I0
sS'4028'
p9
I0
sS'4029'
p10
I0
sS'4607'
p11
I0
sS'344'
p12
I0
sS'345'
p13
I0
sS'346'
p14
I0
sS'347'
p15
I0
sS'340'
p16
I0
sS'341'
p17
I0
sS'342'
p18
I0
sS'343'
p19
I0
sS'163'
p20
I0
sS'348'
p21
I0
sS'349'
p22
I0
sS'4686'
p23
I0
sS'4931'
p24
I0
sS'4684'
p25
I0
sS'6150'
p26
I0
sS'6151'
p27
I0
sS'6152'
p28
I0
sS'4685'
p29
I0
sS'6154'
p30
I0
sS'6155'
p31
I0
sS'6156'
p32
I0
sS'6157'
p33
I0
sS'6158'
p34
I0
sS'4682'
p35
I0
sS'4935'
p36
I0
sS'4732'
p37
I0
sS'4733'
p38
I0
sS'4730'
p39
I0
sS'4731'
p40
I0
sS'4736'
p41
I0
sS'4737'
p42
I0
sS'2318'
p43
I0
sS'2319'
p44
I0
sS'2316'
p45
I0
sS'2317'
p46
I0
sS'2314'
p47
I0
sS'2315'
p48
I0
sS'2312'
p49
I0
sS'2313'
p50
I0
sS'2310'
p51
I0
sS'2311'
p52
I0
sS'4831'
p53
I0
sS'298'
p54
I0
sS'299'
p55
I0
sS'296'
p56
I0
sS'297'
p57
I0
sS'294'
p58
I0
sS'295'
p59
I0
sS'292'
p60
I0
sS'293'
p61
I0
sS'290'
p62
I0
sS'291'
p63
I0
sS'4524'
p64
I1
sS'4835'
p65
I0
sS'4021'
p66
I0
sS'4834'
p67
I0
sS'270'
p68
I0
sS'271'
p69
I0
sS'272'
p70
I0
sS'273'
p71
I0
sS'274'
p72
I0
sS'275'
p73
I0
sS'276'
p74
I0
sS'277'
p75
I0
sS'278'
p76
I0
sS'279'
p77
I0
sS'4836'
p78
I0
sS'4659'
p79
I0
sS'4658'
p80
I0
sS'6195'
p81
I0
sS'2268'
p82
I0
sS'2269'
p83
I0
sS'2262'
p84
I0
sS'2263'
p85
I0
sS'2260'
p86
I0
sS'2261'
p87
I0
sS'2266'
p88
I0
sS'2267'
p89
I0
sS'2264'
p90
I0
sS'2265'
p91
I0
sS'6055'
p92
I0
sS'108'
p93
I0
sS'109'
p94
I0
sS'6054'
p95
I0
sS'102'
p96
I0
sS'103'
p97
I0
sS'100'
p98
I0
sS'101'
p99
I0
sS'106'
p100
I0
sS'107'
p101
I0
sS'104'
p102
I0
sS'105'
p103
I0
sS'2046'
p104
I0
sS'2047'
p105
I0
sS'2044'
p106
I0
sS'2045'
p107
I0
sS'2042'
p108
I0
sS'2043'
p109
I0
sS'2040'
p110
I0
sS'2041'
p111
I0
sS'6051'
p112
I0
sS'4819'
p113
I0
sS'4818'
p114
I0
sS'2048'
p115
I0
sS'2049'
p116
I0
sS'6053'
p117
I0
sS'6052'
p118
I0
sS'4843'
p119
I0
sS'6204'
p120
I0
sS'6205'
p121
I0
sS'6206'
p122
I0
sS'6207'
p123
I0
sS'6200'
p124
I0
sS'6201'
p125
I0
sS'6202'
p126
I0
sS'6203'
p127
I0
sS'6208'
p128
I0
sS'6209'
p129
I0
sS'99'
p130
I0
sS'98'
p131
I0
sS'6010'
p132
I0
sS'91'
p133
I0
sS'90'
p134
I0
sS'93'
p135
I0
sS'92'
p136
I0
sS'95'
p137
I0
sS'94'
p138
I0
sS'97'
p139
I0
sS'96'
p140
I0
sS'6013'
p141
I0
sS'559'
p142
I0
sS'558'
p143
I0
sS'555'
p144
I0
sS'554'
p145
I0
sS'557'
p146
I0
sS'556'
p147
I0
sS'551'
p148
I0
sS'550'
p149
I0
sS'553'
p150
I0
sS'552'
p151
I0
sS'259'
p152
I0
sS'4259'
p153
I0
sS'4258'
p154
I0
sS'4251'
p155
I0
sS'4250'
p156
I0
sS'4253'
p157
I0
sS'4252'
p158
I0
sS'4255'
p159
I0
sS'4254'
p160
I0
sS'4257'
p161
I0
sS'4256'
p162
I0
sS'512'
p163
I0
sS'6153'
p164
I0
sS'689'
p165
I0
sS'688'
p166
I0
sS'685'
p167
I0
sS'684'
p168
I0
sS'687'
p169
I0
sS'686'
p170
I0
sS'681'
p171
I0
sS'680'
p172
I0
sS'683'
p173
I0
sS'682'
p174
I0
sS'4260'
p175
I0
sS'4261'
p176
I0
sS'6159'
p177
I0
sS'2037'
p178
I0
sS'4389'
p179
I1
sS'4388'
p180
I1
sS'4593'
p181
I0
sS'4383'
p182
I1
sS'4382'
p183
I1
sS'4381'
p184
I1
sS'4380'
p185
I1
sS'4387'
p186
I1
sS'4386'
p187
I1
sS'4385'
p188
I1
sS'4384'
p189
I1
sS'407'
p190
I1
sS'406'
p191
I1
sS'405'
p192
I1
sS'404'
p193
I1
sS'403'
p194
I1
sS'402'
p195
I1
sS'401'
p196
I1
sS'400'
p197
I1
sS'2033'
p198
I0
sS'4183'
p199
I0
sS'409'
p200
I1
sS'408'
p201
I1
sS'4182'
p202
I0
sS'2031'
p203
I0
sS'4595'
p204
I0
sS'4031'
p205
I0
sS'4030'
p206
I0
sS'4033'
p207
I0
sS'4032'
p208
I0
sS'4035'
p209
I0
sS'4034'
p210
I0
sS'4037'
p211
I0
sS'4036'
p212
I0
sS'4039'
p213
I0
sS'4038'
p214
I0
sS'4598'
p215
I0
sS'4847'
p216
I0
sS'4734'
p217
I0
sS'4735'
p218
I0
sS'379'
p219
I1
sS'378'
p220
I1
sS'2039'
p221
I0
sS'371'
p222
I1
sS'370'
p223
I0
sS'373'
p224
I1
sS'372'
p225
I1
sS'375'
p226
I1
sS'374'
p227
I1
sS'377'
p228
I1
sS'376'
p229
I1
sS'4739'
p230
I0
sS'393'
p231
I1
sS'392'
p232
I1
sS'391'
p233
I1
sS'390'
p234
I1
sS'397'
p235
I1
sS'396'
p236
I1
sS'395'
p237
I1
sS'394'
p238
I1
sS'399'
p239
I1
sS'398'
p240
I1
sS'2309'
p241
I0
sS'2308'
p242
I0
sS'4729'
p243
I0
sS'4728'
p244
I0
sS'2301'
p245
I0
sS'2300'
p246
I0
sS'2303'
p247
I0
sS'4726'
p248
I0
sS'2305'
p249
I0
sS'2304'
p250
I0
sS'2307'
p251
I0
sS'2306'
p252
I0
sS'245'
p253
I0
sS'244'
p254
I0
sS'247'
p255
I0
sS'246'
p256
I0
sS'241'
p257
I0
sS'240'
p258
I0
sS'243'
p259
I0
sS'4627'
p260
I0
sS'4628'
p261
I0
sS'4629'
p262
I0
sS'249'
p263
I0
sS'248'
p264
I0
sS'2275'
p265
I0
sS'2274'
p266
I0
sS'2277'
p267
I0
sS'2276'
p268
I0
sS'2271'
p269
I0
sS'2270'
p270
I0
sS'2273'
p271
I0
sS'2272'
p272
I0
sS'2279'
p273
I0
sS'2278'
p274
I0
sS'179'
p275
I0
sS'178'
p276
I0
sS'177'
p277
I0
sS'176'
p278
I0
sS'175'
p279
I0
sS'174'
p280
I0
sS'173'
p281
I0
sS'172'
p282
I0
sS'171'
p283
I0
sS'170'
p284
I0
sS'2051'
p285
I0
sS'2050'
p286
I0
sS'2053'
p287
I0
sS'2052'
p288
I0
sS'2055'
p289
I0
sS'2054'
p290
I0
sS'2057'
p291
I0
sS'2056'
p292
I0
sS'4826'
p293
I0
sS'4535'
p294
I1
sS'4824'
p295
I0
sS'4537'
p296
I1
sS'4530'
p297
I1
sS'4531'
p298
I1
sS'4820'
p299
I0
sS'4821'
p300
I0
sS'4795'
p301
I0
sS'4538'
p302
I1
sS'4655'
p303
I0
sS'4654'
p304
I0
sS'4657'
p305
I0
sS'6217'
p306
I0
sS'6216'
p307
I0
sS'6215'
p308
I0
sS'4656'
p309
I0
sS'6213'
p310
I0
sS'4539'
p311
I1
sS'6211'
p312
I0
sS'6210'
p313
I0
sS'4651'
p314
I0
sS'6219'
p315
I0
sS'4650'
p316
I0
sS'4653'
p317
I0
sS'4652'
p318
I0
sS'6007'
p319
I0
sS'4534'
p320
I1
sS'692'
p321
I0
sS'693'
p322
I0
sS'690'
p323
I0
sS'691'
p324
I0
sS'696'
p325
I0
sS'697'
p326
I0
sS'694'
p327
I0
sS'695'
p328
I0
sS'698'
p329
I0
sS'699'
p330
I0
sS'542'
p331
I0
sS'543'
p332
I0
sS'540'
p333
I0
sS'541'
p334
I0
sS'546'
p335
I0
sS'547'
p336
I0
sS'544'
p337
I0
sS'545'
p338
I0
sS'548'
p339
I0
sS'549'
p340
I0
sS'414'
p341
I1
sS'415'
p342
I1
sS'416'
p343
I1
sS'417'
p344
I1
sS'410'
p345
I1
sS'411'
p346
I1
sS'412'
p347
I1
sS'413'
p348
I1
sS'418'
p349
I1
sS'419'
p350
I1
sS'4532'
p351
I1
sS'4282'
p352
I0
sS'4283'
p353
I0
sS'4280'
p354
I0
sS'4281'
p355
I0
sS'4286'
p356
I0
sS'4287'
p357
I0
sS'4284'
p358
I0
sS'4285'
p359
I0
sS'4288'
p360
I0
sS'4289'
p361
I0
sS'368'
p362
I0
sS'369'
p363
I0
sS'366'
p364
I0
sS'367'
p365
I0
sS'364'
p366
I0
sS'365'
p367
I0
sS'362'
p368
I0
sS'363'
p369
I0
sS'360'
p370
I0
sS'361'
p371
I0
sS'380'
p372
I1
sS'381'
p373
I1
sS'382'
p374
I1
sS'383'
p375
I1
sS'384'
p376
I1
sS'385'
p377
I1
sS'386'
p378
I1
sS'387'
p379
I1
sS'388'
p380
I1
sS'389'
p381
I1
sS'6174'
p382
I0
sS'6175'
p383
I0
sS'6172'
p384
I0
sS'6173'
p385
I0
sS'6170'
p386
I0
sS'6171'
p387
I0
sS'4758'
p388
I0
sS'4759'
p389
I0
sS'4750'
p390
I0
sS'4751'
p391
I0
sS'4752'
p392
I0
sS'4753'
p393
I0
sS'4754'
p394
I0
sS'4755'
p395
I0
sS'4756'
p396
I0
sS'4757'
p397
I0
sS'2190'
p398
I1
sS'2191'
p399
I1
sS'4631'
p400
I0
sS'4630'
p401
I0
sS'2194'
p402
I1
sS'2195'
p403
I1
sS'2196'
p404
I1
sS'2197'
p405
I1
sS'2198'
p406
I1
sS'253'
p407
I0
sS'250'
p408
I0
sS'251'
p409
I0
sS'256'
p410
I0
sS'257'
p411
I0
sS'254'
p412
I0
sS'255'
p413
I0
sS'2200'
p414
I1
sS'2201'
p415
I1
sS'2202'
p416
I1
sS'2203'
p417
I1
sS'2204'
p418
I1
sS'2205'
p419
I1
sS'2206'
p420
I1
sS'2207'
p421
I1
sS'2208'
p422
I1
sS'2209'
p423
I1
sS'4813'
p424
I0
sS'4812'
p425
I0
sS'6008'
p426
I0
sS'4811'
p427
I0
sS'4810'
p428
I0
sS'168'
p429
I0
sS'169'
p430
I0
sS'164'
p431
I0
sS'4817'
p432
I0
sS'166'
p433
I0
sS'167'
p434
I0
sS'160'
p435
I0
sS'161'
p436
I0
sS'162'
p437
I0
sS'4816'
p438
I0
sS'4839'
p439
I0
sS'4838'
p440
I0
sS'4815'
p441
I0
sS'4529'
p442
I1
sS'4528'
p443
I1
sS'4527'
p444
I1
sS'4526'
p445
I1
sS'4525'
p446
I1
sS'4832'
p447
I0
sS'4523'
p448
I1
sS'4522'
p449
I1
sS'4521'
p450
I1
sS'4520'
p451
I1
sS'6194'
p452
I0
sS'6279'
p453
I0
sS'6196'
p454
I0
sS'6197'
p455
I0
sS'6190'
p456
I0
sS'6191'
p457
I0
sS'6192'
p458
I0
sS'6193'
p459
I0
sS'6198'
p460
I0
sS'6199'
p461
I0
sS'5054'
p462
I0
sS'5055'
p463
I0
sS'5056'
p464
I0
sS'5050'
p465
I0
sS'5051'
p466
I0
sS'5052'
p467
I0
sS'5053'
p468
I0
sS'6075'
p469
I0
sS'6222'
p470
I0
sS'4336'
p471
I0
sS'6220'
p472
I0
sS'6074'
p473
I0
sS'6226'
p474
I0
sS'6227'
p475
I0
sS'6224'
p476
I0
sS'4337'
p477
I0
sS'6073'
p478
I0
sS'6228'
p479
I0
sS'6229'
p480
I0
sS'4334'
p481
I0
sS'6072'
p482
I0
sS'4335'
p483
I0
sS'670'
p484
I0
sS'671'
p485
I0
sS'4952'
p486
I0
sS'672'
p487
I0
sS'4953'
p488
I0
sS'673'
p489
I0
sS'4950'
p490
I0
sS'4951'
p491
I0
sS'4956'
p492
I0
sS'4957'
p493
I0
sS'4954'
p494
I0
sS'4955'
p495
I0
sS'608'
p496
I0
sS'118'
p497
I0
sS'59'
p498
I0
sS'58'
p499
I0
sS'55'
p500
I0
sS'54'
p501
I0
sS'57'
p502
I0
sS'56'
p503
I0
sS'51'
p504
I0
sS'50'
p505
I0
sS'53'
p506
I0
sS'52'
p507
I0
sS'537'
p508
I0
sS'536'
p509
I0
sS'535'
p510
I0
sS'534'
p511
I0
sS'533'
p512
I0
sS'532'
p513
I0
sS'531'
p514
I0
sS'530'
p515
I0
sS'539'
p516
I0
sS'538'
p517
I0
sS'4691'
p518
I0
sS'6248'
p519
I0
sS'4690'
p520
I0
sS'6049'
p521
I0
sS'429'
p522
I1
sS'428'
p523
I1
sS'421'
p524
I1
sS'420'
p525
I1
sS'423'
p526
I1
sS'422'
p527
I1
sS'425'
p528
I1
sS'424'
p529
I1
sS'427'
p530
I1
sS'426'
p531
I1
sS'4299'
p532
I0
sS'4298'
p533
I0
sS'4295'
p534
I0
sS'4294'
p535
I0
sS'4297'
p536
I0
sS'4296'
p537
I0
sS'4291'
p538
I0
sS'4290'
p539
I0
sS'4293'
p540
I0
sS'4292'
p541
I0
sS'6169'
p542
I0
sS'6168'
p543
I0
sS'258'
p544
I0
sS'6161'
p545
I0
sS'2199'
p546
I1
sS'6163'
p547
I0
sS'6162'
p548
I0
sS'6165'
p549
I0
sS'6164'
p550
I0
sS'6167'
p551
I0
sS'6166'
p552
I0
sS'4749'
p553
I0
sS'4748'
p554
I0
sS'4743'
p555
I0
sS'4742'
p556
I0
sS'4741'
p557
I0
sS'4740'
p558
I0
sS'4747'
p559
I0
sS'4746'
p560
I0
sS'4745'
p561
I0
sS'4744'
p562
I0
sS'4697'
p563
I0
sS'6254'
p564
I0
sS'6138'
p565
I0
sS'2183'
p566
I1
sS'2182'
p567
I1
sS'2181'
p568
I1
sS'2180'
p569
I1
sS'2187'
p570
I1
sS'2186'
p571
I1
sS'4608'
p572
I0
sS'2184'
p573
I1
sS'4606'
p574
I0
sS'226'
p575
I0
sS'4604'
p576
I0
sS'4605'
p577
I0
sS'4602'
p578
I0
sS'4603'
p579
I0
sS'4600'
p580
I0
sS'4601'
p581
I0
sS'2213'
p582
I1
sS'2212'
p583
I1
sS'2211'
p584
I1
sS'2210'
p585
I1
sS'2217'
p586
I1
sS'2216'
p587
I1
sS'2215'
p588
I1
sS'2214'
p589
I1
sS'2219'
p590
I1
sS'2218'
p591
I1
sS'151'
p592
I0
sS'150'
p593
I0
sS'153'
p594
I0
sS'152'
p595
I0
sS'155'
p596
I0
sS'154'
p597
I0
sS'157'
p598
I0
sS'156'
p599
I0
sS'159'
p600
I0
sS'158'
p601
I0
sS'6137'
p602
I0
sS'4518'
p603
I1
sS'4519'
p604
I1
sS'4512'
p605
I1
sS'4513'
p606
I1
sS'4510'
p607
I1
sS'4511'
p608
I1
sS'4516'
p609
I1
sS'4517'
p610
I1
sS'4514'
p611
I1
sS'4515'
p612
I1
sS'6187'
p613
I0
sS'6186'
p614
I0
sS'6185'
p615
I0
sS'6184'
p616
I0
sS'6183'
p617
I0
sS'6182'
p618
I0
sS'6181'
p619
I0
sS'6180'
p620
I0
sS'6189'
p621
I0
sS'6188'
p622
I0
sS'5049'
p623
I0
sS'5048'
p624
I0
sS'5047'
p625
I0
sS'5046'
p626
I0
sS'5045'
p627
I0
sS'5044'
p628
I0
sS'5043'
p629
I0
sS'5042'
p630
I0
sS'5041'
p631
I0
sS'5040'
p632
I0
sS'4996'
p633
I0
sS'4997'
p634
I0
sS'4994'
p635
I0
sS'4995'
p636
I0
sS'4992'
p637
I0
sS'4993'
p638
I0
sS'4990'
p639
I0
sS'4991'
p640
I0
sS'6235'
p641
I0
sS'6234'
p642
I0
sS'6291'
p643
I0
sS'6236'
p644
I0
sS'6231'
p645
I0
sS'6230'
p646
I0
sS'4998'
p647
I0
sS'4999'
p648
I0
sS'6249'
p649
I0
sS'2095'
p650
I0
sS'2094'
p651
I0
sS'2097'
p652
I0
sS'2096'
p653
I0
sS'2091'
p654
I0
sS'2090'
p655
I0
sS'2093'
p656
I0
sS'2092'
p657
I0
sS'4722'
p658
I0
sS'2098'
p659
I0
sS'524'
p660
I0
sS'525'
p661
I0
sS'526'
p662
I0
sS'527'
p663
I0
sS'520'
p664
I0
sS'521'
p665
I0
sS'522'
p666
I0
sS'523'
p667
I0
sS'528'
p668
I0
sS'529'
p669
I0
sS'4920'
p670
I0
sS'6006'
p671
I0
sS'4198'
p672
I0
sS'4199'
p673
I0
sS'4196'
p674
I0
sS'4197'
p675
I0
sS'4194'
p676
I0
sS'4195'
p677
I0
sS'4192'
p678
I0
sS'4193'
p679
I0
sS'4190'
p680
I0
sS'4191'
p681
I0
sS'4358'
p682
I0
sS'4359'
p683
I0
sS'4354'
p684
I0
sS'4355'
p685
I0
sS'4356'
p686
I0
sS'4357'
p687
I0
sS'4350'
p688
I0
sS'4351'
p689
I0
sS'4352'
p690
I0
sS'4353'
p691
I0
sS'6240'
p692
I0
sS'6001'
p693
I0
sS'4677'
p694
I0
sS'438'
p695
I1
sS'439'
p696
I1
sS'436'
p697
I1
sS'437'
p698
I1
sS'434'
p699
I1
sS'435'
p700
I1
sS'432'
p701
I1
sS'433'
p702
I1
sS'430'
p703
I1
sS'431'
p704
I1
sS'4902'
p705
I0
sS'6241'
p706
I0
sS'4905'
p707
I0
sS'4904'
p708
I0
sS'4671'
p709
I0
sS'4849'
p710
I0
sS'4670'
p711
I0
sS'4776'
p712
I0
sS'4777'
p713
I0
sS'4774'
p714
I0
sS'4775'
p715
I0
sS'4772'
p716
I0
sS'4773'
p717
I0
sS'4770'
p718
I0
sS'4771'
p719
I0
sS'4778'
p720
I0
sS'4779'
p721
I0
sS'4174'
p722
I0
sS'4175'
p723
I0
sS'4176'
p724
I0
sS'4177'
p725
I0
sS'4170'
p726
I0
sS'4171'
p727
I0
sS'4172'
p728
I0
sS'4173'
p729
I0
sS'4178'
p730
I0
sS'4179'
p731
I0
sS'6245'
p732
I0
sS'4619'
p733
I0
sS'4618'
p734
I0
sS'238'
p735
I0
sS'239'
p736
I0
sS'4611'
p737
I0
sS'4610'
p738
I0
sS'4613'
p739
I0
sS'237'
p740
I0
sS'230'
p741
I0
sS'4614'
p742
I0
sS'232'
p743
I0
sS'233'
p744
I0
sS'4680'
p745
I0
sS'2228'
p746
I0
sS'2229'
p747
I0
sS'2226'
p748
I0
sS'2227'
p749
I0
sS'2224'
p750
I1
sS'2225'
p751
I1
sS'2222'
p752
I1
sS'2223'
p753
I1
sS'2220'
p754
I1
sS'2221'
p755
I1
sS'1'
p756
I0
sS'146'
p757
I0
sS'147'
p758
I0
sS'144'
p759
I0
sS'145'
p760
I0
sS'142'
p761
I0
sS'143'
p762
I0
sS'140'
p763
I0
sS'141'
p764
I0
sS'148'
p765
I0
sS'149'
p766
I0
sS'4505'
p767
I1
sS'4504'
p768
I1
sS'4507'
p769
I1
sS'4506'
p770
I1
sS'4501'
p771
I1
sS'4500'
p772
I1
sS'4503'
p773
I1
sS'4502'
p774
I1
sS'4509'
p775
I1
sS'4508'
p776
I1
sS'2088'
p777
I0
sS'2089'
p778
I0
sS'2082'
p779
I0
sS'2083'
p780
I0
sS'2080'
p781
I0
sS'2081'
p782
I0
sS'2086'
p783
I0
sS'2087'
p784
I0
sS'2084'
p785
I0
sS'2085'
p786
I0
sS'2154'
p787
I0
sS'2155'
p788
I0
sS'4983'
p789
I0
sS'2157'
p790
I0
sS'4985'
p791
I0
sS'4984'
p792
I0
sS'4987'
p793
I0
sS'4986'
p794
I0
sS'4989'
p795
I0
sS'4988'
p796
I0
sS'6242'
p797
I0
sS'6243'
p798
I0
sS'2158'
p799
I0
sS'2159'
p800
I0
sS'6246'
p801
I0
sS'6247'
p802
I0
sS'229'
p803
I0
sS'4738'
p804
I0
sS'4925'
p805
I0
sS'4312'
p806
I0
sS'227'
p807
I0
sS'4313'
p808
I0
sS'6160'
p809
I0
sS'6259'
p810
I0
sS'4318'
p811
I0
sS'6258'
p812
I0
sS'4319'
p813
I0
sS'2143'
p814
I0
sS'2142'
p815
I0
sS'225'
p816
I0
sS'6009'
p817
I0
sS'6253'
p818
I0
sS'6056'
p819
I0
sS'6252'
p820
I0
sS'6251'
p821
I0
sS'6250'
p822
I0
sS'6257'
p823
I0
sS'224'
p824
I0
sS'6256'
p825
I0
sS'519'
p826
I0
sS'518'
p827
I0
sS'2149'
p828
I0
sS'511'
p829
I0
sS'510'
p830
I0
sS'513'
p831
I0
sS'4973'
p832
I0
sS'515'
p833
I0
sS'514'
p834
I0
sS'517'
p835
I0
sS'516'
p836
I0
sS'4189'
p837
I0
sS'4188'
p838
I0
sS'621'
p839
I0
sS'620'
p840
I0
sS'627'
p841
I0
sS'626'
p842
I0
sS'625'
p843
I0
sS'624'
p844
I0
sS'4181'
p845
I0
sS'4180'
p846
I0
sS'629'
p847
I0
sS'628'
p848
I0
sS'4185'
p849
I0
sS'4184'
p850
I0
sS'4187'
p851
I0
sS'4186'
p852
I0
sS'4349'
p853
I0
sS'4348'
p854
I0
sS'4347'
p855
I0
sS'4346'
p856
I0
sS'4345'
p857
I0
sS'4344'
p858
I0
sS'4343'
p859
I0
sS'4342'
p860
I0
sS'4341'
p861
I0
sS'4340'
p862
I0
sS'2256'
p863
I0
sS'2'
p864
I0
sS'11'
p865
I0
sS'10'
p866
I0
sS'13'
p867
I0
sS'12'
p868
I0
sS'15'
p869
I0
sS'14'
p870
I0
sS'17'
p871
I0
sS'16'
p872
I0
sS'19'
p873
I0
sS'18'
p874
I0
sS'4761'
p875
I0
sS'4760'
p876
I0
sS'4763'
p877
I0
sS'4762'
p878
I0
sS'4765'
p879
I0
sS'4764'
p880
I0
sS'4767'
p881
I0
sS'4766'
p882
I0
sS'4769'
p883
I0
sS'4768'
p884
I0
sS'4167'
p885
I0
sS'4166'
p886
I0
sS'4165'
p887
I0
sS'4164'
p888
I0
sS'4163'
p889
I0
sS'4162'
p890
I0
sS'4161'
p891
I0
sS'4160'
p892
I0
sS'4169'
p893
I0
sS'4168'
p894
I0
sS'4321'
p895
I0
sS'201'
p896
I0
sS'200'
p897
I0
sS'203'
p898
I0
sS'202'
p899
I0
sS'205'
p900
I0
sS'204'
p901
I0
sS'207'
p902
I0
sS'206'
p903
I0
sS'209'
p904
I0
sS'208'
p905
I0
sS'4320'
p906
I0
sS'2239'
p907
I0
sS'2238'
p908
I0
sS'2231'
p909
I0
sS'2230'
p910
I0
sS'2233'
p911
I0
sS'2232'
p912
I0
sS'2235'
p913
I0
sS'2234'
p914
I0
sS'2237'
p915
I0
sS'2236'
p916
I0
sS'6050'
p917
I0
sS'2185'
p918
I1
sS'6233'
p919
I0
sS'228'
p920
I0
sS'4570'
p921
I1
sS'4571'
p922
I1
sS'4572'
p923
I1
sS'4573'
p924
I1
sS'4574'
p925
I1
sS'4575'
p926
I1
sS'4576'
p927
I1
sS'4577'
p928
I1
sS'4578'
p929
I1
sS'4579'
p930
I1
sS'2099'
p931
I0
sS'2189'
p932
I1
sS'2188'
p933
I1
sS'6232'
p934
I0
sS'223'
p935
I0
sS'222'
p936
I0
sS'221'
p937
I0
sS'220'
p938
I0
sS'4888'
p939
I0
sS'4889'
p940
I0
sS'4880'
p941
I0
sS'4881'
p942
I0
sS'4882'
p943
I0
sS'4883'
p944
I0
sS'4884'
p945
I0
sS'4885'
p946
I0
sS'4886'
p947
I0
sS'4887'
p948
I0
sS'4090'
p949
I0
sS'4408'
p950
I1
sS'4409'
p951
I1
sS'4404'
p952
I1
sS'4405'
p953
I1
sS'4406'
p954
I1
sS'4407'
p955
I1
sS'4400'
p956
I1
sS'4401'
p957
I1
sS'4402'
p958
I1
sS'4403'
p959
I1
sS'2147'
p960
I0
sS'2146'
p961
I0
sS'2145'
p962
I0
sS'2144'
p963
I0
sS'4978'
p964
I0
sS'4979'
p965
I0
sS'2141'
p966
I0
sS'2140'
p967
I0
sS'4974'
p968
I0
sS'4975'
p969
I0
sS'4976'
p970
I0
sS'4977'
p971
I0
sS'4970'
p972
I0
sS'4971'
p973
I0
sS'4972'
p974
I0
sS'499'
p975
I0
sS'4224'
p976
I0
sS'4225'
p977
I0
sS'4226'
p978
I0
sS'4227'
p979
I0
sS'4220'
p980
I0
sS'4221'
p981
I0
sS'3'
p982
I0
sS'4222'
p983
I0
sS'4223'
p984
I0
sS'6307'
p985
I0
sS'6306'
p986
I0
sS'6223'
p987
I0
sS'252'
p988
I0
sS'6301'
p989
I0
sS'468'
p990
I0
sS'60'
p991
I0
sS'61'
p992
I0
sS'62'
p993
I0
sS'63'
p994
I0
sS'64'
p995
I0
sS'65'
p996
I0
sS'66'
p997
I0
sS'67'
p998
I0
sS'68'
p999
I0
sS'69'
p1000
I0
sS'6300'
p1001
I0
sS'6221'
p1002
I0
sS'508'
p1003
I0
sS'509'
p1004
I0
sS'506'
p1005
I0
sS'507'
p1006
I0
sS'504'
p1007
I0
sS'505'
p1008
I0
sS'502'
p1009
I0
sS'503'
p1010
I0
sS'500'
p1011
I0
sS'501'
p1012
I0
sS'630'
p1013
I0
sS'631'
p1014
I0
sS'632'
p1015
I0
sS'633'
p1016
I0
sS'634'
p1017
I0
sS'635'
p1018
I0
sS'636'
p1019
I0
sS'637'
p1020
I0
sS'638'
p1021
I0
sS'639'
p1022
I0
sS'4378'
p1023
I0
sS'4379'
p1024
I0
sS'4372'
p1025
I0
sS'4373'
p1026
I0
sS'4370'
p1027
I0
sS'4371'
p1028
I0
sS'4376'
p1029
I0
sS'4377'
p1030
I0
sS'4374'
p1031
I0
sS'4375'
p1032
I0
sS'4830'
p1033
I0
sS'4080'
p1034
I0
sS'4081'
p1035
I0
sS'4082'
p1036
I0
sS'4083'
p1037
I0
sS'4084'
p1038
I0
sS'4085'
p1039
I0
sS'4086'
p1040
I0
sS'4087'
p1041
I0
sS'4088'
p1042
I0
sS'4089'
p1043
I0
sS'6244'
p1044
I0
sS'4833'
p1045
I0
sS'6225'
p1046
I0
sS'2136'
p1047
I0
sS'2137'
p1048
I0
sS'2134'
p1049
I0
sS'2135'
p1050
I0
sS'4798'
p1051
I0
sS'4799'
p1052
I0
sS'4794'
p1053
I0
sS'4695'
p1054
I0
sS'4796'
p1055
I0
sS'4797'
p1056
I0
sS'4790'
p1057
I0
sS'4791'
p1058
I0
sS'4792'
p1059
I0
sS'4694'
p1060
I0
sS'4152'
p1061
I0
sS'4153'
p1062
I0
sS'4150'
p1063
I0
sS'4151'
p1064
I0
sS'4156'
p1065
I0
sS'4157'
p1066
I0
sS'4154'
p1067
I0
sS'4155'
p1068
I0
sS'4158'
p1069
I0
sS'4159'
p1070
I0
sS'6057'
p1071
I0
sS'216'
p1072
I0
sS'217'
p1073
I0
sS'214'
p1074
I0
sS'215'
p1075
I0
sS'212'
p1076
I0
sS'213'
p1077
I0
sS'210'
p1078
I0
sS'211'
p1079
I0
sS'218'
p1080
I0
sS'219'
p1081
I0
sS'4837'
p1082
I0
sS'6088'
p1083
I0
sS'6089'
p1084
I0
sS'6086'
p1085
I0
sS'6087'
p1086
I0
sS'6084'
p1087
I0
sS'6085'
p1088
I0
sS'6082'
p1089
I0
sS'6083'
p1090
I0
sS'6080'
p1091
I0
sS'6081'
p1092
I0
sS'6255'
p1093
I0
sS'4'
p1094
I0
sS'4563'
p1095
I1
sS'4562'
p1096
I1
sS'4561'
p1097
I1
sS'4560'
p1098
I1
sS'4567'
p1099
I1
sS'4566'
p1100
I1
sS'4565'
p1101
I1
sS'4564'
p1102
I1
sS'4569'
p1103
I1
sS'4568'
p1104
I1
sS'6041'
p1105
I0
sS'5010'
p1106
I0
sS'5011'
p1107
I0
sS'4899'
p1108
I0
sS'4898'
p1109
I0
sS'5014'
p1110
I0
sS'5015'
p1111
I0
sS'5016'
p1112
I0
sS'5017'
p1113
I0
sS'4893'
p1114
I0
sS'5019'
p1115
I0
sS'4891'
p1116
I0
sS'4890'
p1117
I0
sS'4897'
p1118
I0
sS'4896'
p1119
I0
sS'4895'
p1120
I0
sS'4894'
p1121
I0
sS'6266'
p1122
I0
sS'6267'
p1123
I0
sS'6264'
p1124
I0
sS'6265'
p1125
I0
sS'6262'
p1126
I0
sS'6263'
p1127
I0
sS'4419'
p1128
I1
sS'4418'
p1129
I1
sS'4417'
p1130
I1
sS'4416'
p1131
I1
sS'4415'
p1132
I1
sS'4414'
p1133
I1
sS'4413'
p1134
I1
sS'4412'
p1135
I1
sS'4411'
p1136
I1
sS'4410'
p1137
I1
sS'2172'
p1138
I1
sS'2173'
p1139
I1
sS'2170'
p1140
I1
sS'2171'
p1141
I1
sS'2176'
p1142
I1
sS'4900'
p1143
I0
sS'4969'
p1144
I0
sS'2175'
p1145
I1
sS'4967'
p1146
I0
sS'4966'
p1147
I0
sS'2178'
p1148
I1
sS'2179'
p1149
I1
sS'4963'
p1150
I0
sS'4962'
p1151
I0
sS'4961'
p1152
I0
sS'4960'
p1153
I0
sS'4903'
p1154
I0
sS'6042'
p1155
I0
sS'9'
p1156
I0
sS'6043'
p1157
I0
sS'6143'
p1158
I0
sS'6142'
p1159
I0
sS'6141'
p1160
I0
sS'6140'
p1161
I0
sS'6147'
p1162
I0
sS'6040'
p1163
I0
sS'6146'
p1164
I0
sS'4365'
p1165
I0
sS'4364'
p1166
I0
sS'4367'
p1167
I0
sS'4366'
p1168
I0
sS'4361'
p1169
I0
sS'4360'
p1170
I0
sS'4363'
p1171
I0
sS'4362'
p1172
I0
sS'6144'
p1173
I0
sS'4369'
p1174
I0
sS'4368'
p1175
I0
sS'469'
p1176
I0
sS'6149'
p1177
I0
sS'4276'
p1178
I0
sS'6148'
p1179
I0
sS'5'
p1180
I0
sS'6046'
p1181
I0
sS'4589'
p1182
I0
sS'4278'
p1183
I0
sS'4279'
p1184
I0
sS'2007'
p1185
I0
sS'4093'
p1186
I0
sS'4092'
p1187
I0
sS'4091'
p1188
I0
sS'466'
p1189
I0
sS'4097'
p1190
I0
sS'4096'
p1191
I0
sS'4095'
p1192
I0
sS'4094'
p1193
I0
sS'4099'
p1194
I0
sS'4858'
p1195
I0
sS'450'
p1196
I0
sS'4585'
p1197
I1
sS'6047'
p1198
I0
sS'489'
p1199
I0
sS'4856'
p1200
I0
sS'487'
p1201
I0
sS'486'
p1202
I0
sS'485'
p1203
I0
sS'484'
p1204
I0
sS'483'
p1205
I0
sS'2008'
p1206
I0
sS'481'
p1207
I0
sS'480'
p1208
I0
sS'2009'
p1209
I0
sS'4853'
p1210
I0
sS'451'
p1211
I0
sS'4827'
p1212
I0
sS'4852'
p1213
I0
sS'4725'
p1214
I0
sS'4851'
p1215
I0
sS'4724'
p1216
I0
sS'4582'
p1217
I1
sS'4727'
p1218
I0
sS'2302'
p1219
I0
sS'4721'
p1220
I0
sS'4720'
p1221
I0
sS'4723'
p1222
I0
sS'4789'
p1223
I0
sS'4788'
p1224
I0
sS'4787'
p1225
I0
sS'4786'
p1226
I0
sS'4785'
p1227
I0
sS'4784'
p1228
I0
sS'4783'
p1229
I0
sS'4782'
p1230
I0
sS'4781'
p1231
I0
sS'4780'
p1232
I0
sS'4149'
p1233
I0
sS'4148'
p1234
I0
sS'4145'
p1235
I0
sS'4144'
p1236
I0
sS'4147'
p1237
I0
sS'4146'
p1238
I0
sS'4141'
p1239
I0
sS'4140'
p1240
I0
sS'4143'
p1241
I0
sS'4142'
p1242
I0
sS'6099'
p1243
I0
sS'6098'
p1244
I0
sS'4814'
p1245
I0
sS'6091'
p1246
I0
sS'6090'
p1247
I0
sS'6093'
p1248
I0
sS'6092'
p1249
I0
sS'6095'
p1250
I0
sS'6094'
p1251
I0
sS'6097'
p1252
I0
sS'6096'
p1253
I0
sS'4823'
p1254
I0
sS'6048'
p1255
I0
sS'199'
p1256
I0
sS'198'
p1257
I0
sS'195'
p1258
I0
sS'194'
p1259
I0
sS'197'
p1260
I0
sS'196'
p1261
I0
sS'191'
p1262
I0
sS'190'
p1263
I0
sS'193'
p1264
I0
sS'192'
p1265
I0
sS'4558'
p1266
I1
sS'4559'
p1267
I1
sS'4556'
p1268
I1
sS'4557'
p1269
I1
sS'4554'
p1270
I1
sS'4555'
p1271
I1
sS'4552'
p1272
I1
sS'4553'
p1273
I1
sS'4550'
p1274
I1
sS'4551'
p1275
I1
sS'5003'
p1276
I0
sS'5002'
p1277
I0
sS'5001'
p1278
I0
sS'5000'
p1279
I0
sS'5007'
p1280
I0
sS'5006'
p1281
I0
sS'5005'
p1282
I0
sS'5004'
p1283
I0
sS'5009'
p1284
I0
sS'5008'
p1285
I0
sS'6271'
p1286
I0
sS'4620'
p1287
I0
sS'4428'
p1288
I1
sS'4429'
p1289
I1
sS'6275'
p1290
I0
sS'6274'
p1291
I0
sS'6277'
p1292
I0
sS'4621'
p1293
I0
sS'4422'
p1294
I1
sS'4423'
p1295
I1
sS'4420'
p1296
I1
sS'4421'
p1297
I1
sS'4426'
p1298
I1
sS'4427'
p1299
I1
sS'4424'
p1300
I1
sS'4425'
p1301
I1
sS'6077'
p1302
I0
sS'6076'
p1303
I0
sS'4958'
p1304
I0
sS'4959'
p1305
I0
sS'2169'
p1306
I1
sS'2168'
p1307
I1
sS'6071'
p1308
I0
sS'6070'
p1309
I0
sS'2165'
p1310
I1
sS'2164'
p1311
I1
sS'2167'
p1312
I1
sS'2166'
p1313
I1
sS'2161'
p1314
I0
sS'2160'
p1315
I0
sS'2163'
p1316
I1
sS'2162'
p1317
I1
sS'4626'
p1318
I0
sS'242'
p1319
I0
sS'6239'
p1320
I0
sS'6'
p1321
I0
sS'449'
p1322
I0
sS'4310'
p1323
I0
sS'4311'
p1324
I0
sS'618'
p1325
I0
sS'619'
p1326
I0
sS'4314'
p1327
I0
sS'4315'
p1328
I0
sS'4316'
p1329
I0
sS'4317'
p1330
I0
sS'612'
p1331
I0
sS'613'
p1332
I0
sS'610'
p1333
I0
sS'611'
p1334
I0
sS'616'
p1335
I0
sS'617'
p1336
I0
sS'614'
p1337
I0
sS'615'
p1338
I0
sS'2325'
p1339
I0
sS'498'
p1340
I0
sS'4229'
p1341
I0
sS'494'
p1342
I0
sS'495'
p1343
I0
sS'496'
p1344
I0
sS'497'
p1345
I0
sS'490'
p1346
I0
sS'491'
p1347
I0
sS'492'
p1348
I0
sS'493'
p1349
I0
sS'24'
p1350
I0
sS'25'
p1351
I0
sS'26'
p1352
I0
sS'27'
p1353
I0
sS'20'
p1354
I0
sS'21'
p1355
I0
sS'22'
p1356
I0
sS'23'
p1357
I0
sS'28'
p1358
I0
sS'29'
p1359
I0
sS'5037'
p1360
I0
sS'4138'
p1361
I0
sS'4139'
p1362
I0
sS'4130'
p1363
I0
sS'4131'
p1364
I0
sS'4132'
p1365
I0
sS'4133'
p1366
I0
sS'4134'
p1367
I0
sS'4135'
p1368
I0
sS'4136'
p1369
I0
sS'4137'
p1370
I0
sS'4044'
p1371
I0
sS'4045'
p1372
I0
sS'4046'
p1373
I0
sS'4047'
p1374
I0
sS'4040'
p1375
I0
sS'4041'
p1376
I0
sS'4042'
p1377
I0
sS'4043'
p1378
I0
sS'4048'
p1379
I0
sS'4049'
p1380
I0
sS'6145'
p1381
I0
sS'7'
p1382
I0
sS'607'
p1383
I0
sS'2288'
p1384
I0
sS'2289'
p1385
I0
sS'4944'
p1386
I0
sS'2280'
p1387
I0
sS'2281'
p1388
I0
sS'2282'
p1389
I0
sS'2283'
p1390
I0
sS'2284'
p1391
I0
sS'2285'
p1392
I0
sS'2286'
p1393
I0
sS'2287'
p1394
I0
sS'4549'
p1395
I1
sS'4548'
p1396
I1
sS'4541'
p1397
I1
sS'4540'
p1398
I1
sS'4543'
p1399
I1
sS'4542'
p1400
I1
sS'4545'
p1401
I1
sS'4544'
p1402
I1
sS'4547'
p1403
I1
sS'4546'
p1404
I1
sS'4828'
p1405
I0
sS'4829'
p1406
I0
sS'2059'
p1407
I0
sS'2058'
p1408
I0
sS'2132'
p1409
I0
sS'4536'
p1410
I1
sS'591'
p1411
I0
sS'4825'
p1412
I0
sS'5038'
p1413
I0
sS'5039'
p1414
I0
sS'5036'
p1415
I0
sS'4822'
p1416
I0
sS'5034'
p1417
I0
sS'5035'
p1418
I0
sS'5032'
p1419
I0
sS'5033'
p1420
I0
sS'5030'
p1421
I0
sS'5031'
p1422
I0
sS'4435'
p1423
I1
sS'4434'
p1424
I1
sS'4437'
p1425
I1
sS'4436'
p1426
I1
sS'4431'
p1427
I1
sS'4430'
p1428
I1
sS'4433'
p1429
I1
sS'4432'
p1430
I1
sS'2133'
p1431
I0
sS'4533'
p1432
I1
sS'4439'
p1433
I1
sS'4438'
p1434
I1
sS'4945'
p1435
I0
sS'2118'
p1436
I0
sS'4947'
p1437
I0
sS'4946'
p1438
I0
sS'4941'
p1439
I0
sS'4940'
p1440
I0
sS'4943'
p1441
I0
sS'2119'
p1442
I0
sS'6284'
p1443
I0
sS'6285'
p1444
I0
sS'6286'
p1445
I0
sS'6287'
p1446
I0
sS'4949'
p1447
I0
sS'4948'
p1448
I0
sS'6282'
p1449
I0
sS'6283'
p1450
I0
sS'182'
p1451
I0
sS'183'
p1452
I0
sS'180'
p1453
I0
sS'181'
p1454
I0
sS'186'
p1455
I0
sS'187'
p1456
I0
sS'184'
p1457
I0
sS'185'
p1458
I0
sS'2110'
p1459
I0
sS'2111'
p1460
I0
sS'188'
p1461
I0
sS'189'
p1462
I0
sS'2114'
p1463
I0
sS'2115'
p1464
I0
sS'2116'
p1465
I0
sS'2117'
p1466
I0
sS'6044'
p1467
I0
sS'6045'
p1468
I0
sS'6079'
p1469
I0
sS'2131'
p1470
I0
sS'2112'
p1471
I0
sS'2113'
p1472
I0
sS'6078'
p1473
I0
sS'2024'
p1474
I0
sS'2025'
p1475
I0
sS'2026'
p1476
I0
sS'2027'
p1477
I0
sS'2020'
p1478
I0
sS'2021'
p1479
I0
sS'2022'
p1480
I0
sS'2023'
p1481
I0
sS'6298'
p1482
I0
sS'2028'
p1483
I0
sS'2029'
p1484
I0
sS'77'
p1485
I0
sS'76'
p1486
I0
sS'75'
p1487
I0
sS'74'
p1488
I0
sS'73'
p1489
I0
sS'72'
p1490
I0
sS'71'
p1491
I0
sS'70'
p1492
I0
sS'79'
p1493
I0
sS'78'
p1494
I0
sS'609'
p1495
I0
sS'4303'
p1496
I0
sS'4302'
p1497
I0
sS'4301'
p1498
I0
sS'4300'
p1499
I0
sS'4307'
p1500
I0
sS'4306'
p1501
I0
sS'669'
p1502
I0
sS'668'
p1503
I0
sS'667'
p1504
I0
sS'666'
p1505
I0
sS'665'
p1506
I0
sS'4308'
p1507
I0
sS'663'
p1508
I0
sS'662'
p1509
I0
sS'661'
p1510
I0
sS'660'
p1511
I0
sS'8'
p1512
I0
sS'6062'
p1513
I0
sS'4239'
p1514
I0
sS'4238'
p1515
I0
sS'4237'
p1516
I0
sS'4236'
p1517
I0
sS'4235'
p1518
I0
sS'4234'
p1519
I0
sS'4233'
p1520
I0
sS'4232'
p1521
I0
sS'4231'
p1522
I0
sS'4230'
p1523
I0
sS'6124'
p1524
I0
sS'4609'
p1525
I0
sS'319'
p1526
I0
sS'318'
p1527
I0
sS'313'
p1528
I0
sS'312'
p1529
I0
sS'311'
p1530
I0
sS'310'
p1531
I0
sS'317'
p1532
I0
sS'316'
p1533
I0
sS'315'
p1534
I0
sS'314'
p1535
I0
sS'448'
p1536
I0
sS'4129'
p1537
I0
sS'4128'
p1538
I0
sS'4123'
p1539
I0
sS'4122'
p1540
I0
sS'4121'
p1541
I0
sS'4120'
p1542
I0
sS'4127'
p1543
I0
sS'4126'
p1544
I0
sS'4125'
p1545
I0
sS'4124'
p1546
I0
sS'6061'
p1547
I0
sS'6214'
p1548
I0
sS'6237'
p1549
I0
sS'6212'
p1550
I0
sS'2323'
p1551
I0
sS'2322'
p1552
I0
sS'447'
p1553
I0
sS'2321'
p1554
I0
sS'446'
p1555
I0
sS'6179'
p1556
I0
sS'2320'
p1557
I0
sS'2327'
p1558
I0
sS'2326'
p1559
I0
sS'4057'
p1560
I0
sS'4056'
p1561
I0
sS'4055'
p1562
I0
sS'4054'
p1563
I0
sS'4053'
p1564
I0
sS'4052'
p1565
I0
sS'4051'
p1566
I0
sS'4050'
p1567
I0
sS'2324'
p1568
I0
sS'6063'
p1569
I0
sS'4059'
p1570
I0
sS'4058'
p1571
I0
sS'6218'
p1572
I0
sS'2299'
p1573
I0
sS'2298'
p1574
I0
sS'2293'
p1575
I0
sS'2292'
p1576
I0
sS'2291'
p1577
I0
sS'2290'
p1578
I0
sS'2297'
p1579
I0
sS'2296'
p1580
I0
sS'2295'
p1581
I0
sS'2294'
p1582
I0
sS'5029'
p1583
I0
sS'5028'
p1584
I0
sS'5021'
p1585
I0
sS'5020'
p1586
I0
sS'5023'
p1587
I0
sS'5022'
p1588
I0
sS'5025'
p1589
I0
sS'5024'
p1590
I0
sS'5027'
p1591
I0
sS'5026'
p1592
I0
sS'4440'
p1593
I1
sS'4441'
p1594
I1
sS'4442'
p1595
I1
sS'4443'
p1596
I1
sS'4444'
p1597
I1
sS'4445'
p1598
I1
sS'4446'
p1599
I1
sS'4447'
p1600
I1
sS'4448'
p1601
I1
sS'4449'
p1602
I1
sS'4930'
p1603
I0
sS'4687'
p1604
I0
sS'4932'
p1605
I0
sS'4933'
p1606
I0
sS'4934'
p1607
I0
sS'4683'
p1608
I0
sS'4936'
p1609
I0
sS'4681'
p1610
I0
sS'4938'
p1611
I0
sS'4939'
p1612
I0
sS'6295'
p1613
I0
sS'6294'
p1614
I0
sS'6293'
p1615
I0
sS'6292'
p1616
I0
sS'4688'
p1617
I0
sS'4689'
p1618
I0
sS'2109'
p1619
I0
sS'2108'
p1620
I0
sS'6059'
p1621
I0
sS'6058'
p1622
I0
sS'2103'
p1623
I0
sS'2102'
p1624
I0
sS'2101'
p1625
I0
sS'2100'
p1626
I0
sS'2107'
p1627
I0
sS'2106'
p1628
I0
sS'2105'
p1629
I0
sS'2104'
p1630
I0
sS'4592'
p1631
I0
sS'2036'
p1632
I0
sS'4590'
p1633
I0
sS'4591'
p1634
I0
sS'4596'
p1635
I0
sS'4597'
p1636
I0
sS'4594'
p1637
I0
sS'2030'
p1638
I0
sS'4844'
p1639
I0
sS'4845'
p1640
I0
sS'4846'
p1641
I0
sS'4599'
p1642
I0
sS'4840'
p1643
I0
sS'4841'
p1644
I0
sS'4842'
p1645
I0
sS'2038'
p1646
I0
sS'4937'
p1647
I0
sS'6238'
p1648
I0
sS'678'
p1649
I0
sS'679'
p1650
I0
sS'4338'
p1651
I0
sS'4339'
p1652
I0
sS'674'
p1653
I0
sS'675'
p1654
I0
sS'676'
p1655
I0
sS'677'
p1656
I0
sS'4332'
p1657
I0
sS'4333'
p1658
I0
sS'4330'
p1659
I0
sS'4331'
p1660
I0
sS'6012'
p1661
I0
sS'645'
p1662
I0
sS'6016'
p1663
I0
sS'4103'
p1664
I0
sS'6019'
p1665
I0
sS'6018'
p1666
I0
sS'4647'
p1667
I0
sS'4208'
p1668
I0
sS'4209'
p1669
I0
sS'4202'
p1670
I0
sS'4203'
p1671
I0
sS'4200'
p1672
I0
sS'4201'
p1673
I0
sS'4206'
p1674
I0
sS'4207'
p1675
I0
sS'4204'
p1676
I0
sS'4205'
p1677
I0
sS'308'
p1678
I0
sS'309'
p1679
I0
sS'300'
p1680
I0
sS'301'
p1681
I0
sS'302'
p1682
I0
sS'303'
p1683
I0
sS'304'
p1684
I0
sS'305'
p1685
I0
sS'306'
p1686
I0
sS'307'
p1687
I0
sS'4116'
p1688
I0
sS'4117'
p1689
I0
sS'4114'
p1690
I0
sS'4115'
p1691
I0
sS'4112'
p1692
I0
sS'4113'
p1693
I0
sS'4110'
p1694
I0
sS'4111'
p1695
I0
sS'4118'
p1696
I0
sS'4119'
p1697
I0
sS'2250'
p1698
I0
sS'5012'
p1699
I0
sS'5013'
p1700
I0
sS'4062'
p1701
I0
sS'4063'
p1702
I0
sS'4060'
p1703
I0
sS'4061'
p1704
I0
sS'4066'
p1705
I0
sS'4067'
p1706
I0
sS'4064'
p1707
I0
sS'4065'
p1708
I0
sS'4068'
p1709
I0
sS'4069'
p1710
I0
sS'5018'
p1711
I0
sS'4892'
p1712
I0
sS'4638'
p1713
I0
sS'623'
p1714
I0
sS'6118'
p1715
I0
sS'6119'
p1716
I0
sS'6114'
p1717
I0
sS'6115'
p1718
I0
sS'6116'
p1719
I0
sS'6117'
p1720
I0
sS'6110'
p1721
I0
sS'6111'
p1722
I0
sS'6112'
p1723
I0
sS'6113'
p1724
I0
sS'622'
p1725
I0
sS'4453'
p1726
I1
sS'4452'
p1727
I1
sS'4451'
p1728
I1
sS'4450'
p1729
I1
sS'4457'
p1730
I1
sS'4456'
p1731
I1
sS'4455'
p1732
I1
sS'4454'
p1733
I1
sS'4459'
p1734
I1
sS'4458'
p1735
I1
sS'4923'
p1736
I0
sS'4922'
p1737
I0
sS'4921'
p1738
I0
sS'4692'
p1739
I0
sS'4927'
p1740
I0
sS'4926'
p1741
I0
sS'2130'
p1742
I0
sS'4696'
p1743
I0
sS'4699'
p1744
I0
sS'4698'
p1745
I0
sS'4929'
p1746
I0
sS'4928'
p1747
I0
sS'2138'
p1748
I0
sS'2139'
p1749
I0
sS'6028'
p1750
I0
sS'6029'
p1751
I0
sS'6020'
p1752
I0
sS'6021'
p1753
I0
sS'6022'
p1754
I0
sS'6023'
p1755
I0
sS'6024'
p1756
I0
sS'6025'
p1757
I0
sS'6026'
p1758
I0
sS'6027'
p1759
I0
sS'4924'
p1760
I0
sS'6260'
p1761
I0
sS'6261'
p1762
I0
sS'2002'
p1763
I0
sS'2003'
p1764
I0
sS'2001'
p1765
I0
sS'2006'
p1766
I0
sS'4588'
p1767
I0
sS'2004'
p1768
I0
sS'2005'
p1769
I0
sS'4857'
p1770
I0
sS'4584'
p1771
I1
sS'4587'
p1772
I0
sS'4586'
p1773
I0
sS'4581'
p1774
I1
sS'4580'
p1775
I1
sS'4583'
p1776
I1
sS'4850'
p1777
I0
sS'6268'
p1778
I0
sS'6269'
p1779
I0
sS'6064'
p1780
I0
sS'4305'
p1781
I0
sS'6065'
p1782
I0
sS'4304'
p1783
I0
sS'6066'
p1784
I0
sS'4942'
p1785
I0
sS'6067'
p1786
I0
sS'6060'
p1787
I0
sS'4309'
p1788
I0
sS'2177'
p1789
I1
sS'664'
p1790
I0
sS'2174'
p1791
I1
sS'719'
p1792
I0
sS'718'
p1793
I0
sS'717'
p1794
I0
sS'716'
p1795
I0
sS'715'
p1796
I0
sS'714'
p1797
I0
sS'713'
p1798
I0
sS'712'
p1799
I0
sS'711'
p1800
I0
sS'710'
p1801
I0
sS'6305'
p1802
I0
sS'6304'
p1803
I0
sS'4965'
p1804
I0
sS'4964'
p1805
I0
sS'6068'
p1806
I0
sS'6069'
p1807
I0
sS'4390'
p1808
I1
sS'6303'
p1809
I0
sS'6302'
p1810
I0
sS'4329'
p1811
I0
sS'4328'
p1812
I0
sS'593'
p1813
I0
sS'592'
p1814
I0
sS'595'
p1815
I0
sS'594'
p1816
I0
sS'597'
p1817
I0
sS'596'
p1818
I0
sS'599'
p1819
I0
sS'598'
p1820
I0
sS'4323'
p1821
I0
sS'4322'
p1822
I0
sS'4325'
p1823
I0
sS'4324'
p1824
I0
sS'4327'
p1825
I0
sS'4326'
p1826
I0
sS'4622'
p1827
I0
sS'4215'
p1828
I0
sS'4214'
p1829
I0
sS'4217'
p1830
I0
sS'4216'
p1831
I0
sS'4211'
p1832
I0
sS'4210'
p1833
I0
sS'4213'
p1834
I0
sS'4212'
p1835
I0
sS'443'
p1836
I1
sS'442'
p1837
I1
sS'441'
p1838
I1
sS'440'
p1839
I1
sS'4219'
p1840
I0
sS'4218'
p1841
I0
sS'445'
p1842
I0
sS'444'
p1843
I1
sS'4623'
p1844
I0
sS'39'
p1845
I0
sS'38'
p1846
I0
sS'33'
p1847
I0
sS'32'
p1848
I0
sS'31'
p1849
I0
sS'30'
p1850
I0
sS'37'
p1851
I0
sS'36'
p1852
I0
sS'35'
p1853
I0
sS'34'
p1854
I0
sS'641'
p1855
I0
sS'640'
p1856
I0
sS'643'
p1857
I0
sS'642'
p1858
I0
sS'4624'
p1859
I0
sS'644'
p1860
I0
sS'647'
p1861
I0
sS'646'
p1862
I0
sS'649'
p1863
I0
sS'648'
p1864
I0
sS'339'
p1865
I0
sS'338'
p1866
I0
sS'335'
p1867
I0
sS'334'
p1868
I0
sS'337'
p1869
I0
sS'336'
p1870
I0
sS'331'
p1871
I0
sS'330'
p1872
I0
sS'333'
p1873
I0
sS'332'
p1874
I0
sS'4101'
p1875
I0
sS'4100'
p1876
I0
sS'4625'
p1877
I0
sS'4102'
p1878
I0
sS'4105'
p1879
I0
sS'4104'
p1880
I0
sS'4107'
p1881
I0
sS'4106'
p1882
I0
sS'4109'
p1883
I0
sS'4108'
p1884
I0
sS'4079'
p1885
I0
sS'4078'
p1886
I0
sS'4075'
p1887
I0
sS'4074'
p1888
I0
sS'4077'
p1889
I0
sS'4076'
p1890
I0
sS'4071'
p1891
I0
sS'4070'
p1892
I0
sS'4073'
p1893
I0
sS'4072'
p1894
I0
sS'234'
p1895
I0
sS'235'
p1896
I0
sS'236'
p1897
I0
sS'4612'
p1898
I0
sS'6109'
p1899
I0
sS'6108'
p1900
I0
sS'6107'
p1901
I0
sS'4615'
p1902
I0
sS'6105'
p1903
I0
sS'6104'
p1904
I0
sS'6103'
p1905
I0
sS'6102'
p1906
I0
sS'6101'
p1907
I0
sS'231'
p1908
I0
sS'4617'
p1909
I0
sS'4616'
p1910
I0
sS'2148'
p1911
I0
sS'4468'
p1912
I1
sS'4469'
p1913
I1
sS'4466'
p1914
I1
sS'4467'
p1915
I1
sS'4464'
p1916
I1
sS'4465'
p1917
I1
sS'4462'
p1918
I1
sS'4463'
p1919
I1
sS'4460'
p1920
I1
sS'4461'
p1921
I1
sS'2121'
p1922
I0
sS'2120'
p1923
I0
sS'2123'
p1924
I0
sS'2122'
p1925
I0
sS'2125'
p1926
I0
sS'2124'
p1927
I0
sS'4918'
p1928
I0
sS'2126'
p1929
I0
sS'4916'
p1930
I0
sS'4917'
p1931
I0
sS'4914'
p1932
I0
sS'4915'
p1933
I0
sS'4912'
p1934
I0
sS'4913'
p1935
I0
sS'4662'
p1936
I0
sS'4911'
p1937
I0
sS'6039'
p1938
I0
sS'6038'
p1939
I0
sS'6106'
p1940
I0
sS'6033'
p1941
I0
sS'6032'
p1942
I0
sS'6031'
p1943
I0
sS'6030'
p1944
I0
sS'6037'
p1945
I0
sS'6036'
p1946
I0
sS'6035'
p1947
I0
sS'6034'
p1948
I0
sS'133'
p1949
I0
sS'132'
p1950
I0
sS'131'
p1951
I0
sS'130'
p1952
I0
sS'137'
p1953
I0
sS'136'
p1954
I0
sS'135'
p1955
I0
sS'134'
p1956
I0
sS'139'
p1957
I0
sS'138'
p1958
I0
sS'4868'
p1959
I0
sS'4869'
p1960
I0
sS'2019'
p1961
I0
sS'2018'
p1962
I0
sS'2015'
p1963
I0
sS'2014'
p1964
I0
sS'2017'
p1965
I0
sS'2016'
p1966
I0
sS'4866'
p1967
I0
sS'2010'
p1968
I0
sS'2013'
p1969
I0
sS'2012'
p1970
I0
sS'2129'
p1971
I0
sS'4484'
p1972
I1
sS'4485'
p1973
I1
sS'4486'
p1974
I1
sS'4487'
p1975
I1
sS'4480'
p1976
I1
sS'4481'
p1977
I1
sS'4482'
p1978
I1
sS'4483'
p1979
I1
sS'4488'
p1980
I1
sS'4489'
p1981
I1
sS'708'
p1982
I0
sS'709'
p1983
I0
sS'704'
p1984
I0
sS'705'
p1985
I0
sS'706'
p1986
I0
sS'707'
p1987
I0
sS'700'
p1988
I0
sS'701'
p1989
I0
sS'702'
p1990
I0
sS'703'
p1991
I0
sS'88'
p1992
I0
sS'89'
p1993
I0
sS'4793'
p1994
I0
sS'82'
p1995
I0
sS'83'
p1996
I0
sS'80'
p1997
I0
sS'81'
p1998
I0
sS'86'
p1999
I0
sS'87'
p2000
I0
sS'84'
p2001
I0
sS'85'
p2002
I0
sS'6299'
p2003
I0
sS'586'
p2004
I0
sS'587'
p2005
I0
sS'584'
p2006
I0
sS'585'
p2007
I0
sS'582'
p2008
I0
sS'583'
p2009
I0
sS'580'
p2010
I0
sS'581'
p2011
I0
sS'588'
p2012
I0
sS'589'
p2013
I0
sS'6297'
p2014
I0
sS'6296'
p2015
I0
sS'458'
p2016
I0
sS'459'
p2017
I0
sS'4262'
p2018
I0
sS'4263'
p2019
I0
sS'4264'
p2020
I0
sS'4265'
p2021
I0
sS'4266'
p2022
I0
sS'4267'
p2023
I0
sS'4268'
p2024
I0
sS'4269'
p2025
I0
sS'452'
p2026
I0
sS'453'
p2027
I0
sS'454'
p2028
I0
sS'455'
p2029
I0
sS'456'
p2030
I0
sS'457'
p2031
I0
sS'656'
p2032
I0
sS'657'
p2033
I0
sS'654'
p2034
I0
sS'655'
p2035
I0
sS'652'
p2036
I0
sS'653'
p2037
I0
sS'650'
p2038
I0
sS'651'
p2039
I0
sS'658'
p2040
I0
sS'659'
p2041
I0
sS'4668'
p2042
I0
sS'4669'
p2043
I0
sS'2127'
p2044
I0
sS'4919'
p2045
I0
sS'4664'
p2046
I0
sS'2128'
p2047
I0
sS'4666'
p2048
I0
sS'6139'
p2049
I0
sS'4667'
p2050
I0
sS'4660'
p2051
I0
sS'4665'
p2052
I0
sS'4661'
p2053
I0
sS'4910'
p2054
I0
sS'4663'
p2055
I0
sS'4008'
p2056
I0
sS'4009'
p2057
I0
sS'4001'
p2058
I0
sS'4002'
p2059
I0
sS'4003'
p2060
I0
sS'4004'
p2061
I0
sS'4005'
p2062
I0
sS'4006'
p2063
I0
sS'4007'
p2064
I0
sS'322'
p2065
I0
sS'323'
p2066
I0
sS'320'
p2067
I0
sS'321'
p2068
I0
sS'326'
p2069
I0
sS'327'
p2070
I0
sS'324'
p2071
I0
sS'325'
p2072
I0
sS'328'
p2073
I0
sS'329'
p2074
I0
sS'4714'
p2075
I0
sS'4715'
p2076
I0
sS'4716'
p2077
I0
sS'4717'
p2078
I0
sS'4710'
p2079
I0
sS'4711'
p2080
I0
sS'4712'
p2081
I0
sS'4713'
p2082
I0
sS'6132'
p2083
I0
sS'6133'
p2084
I0
sS'6130'
p2085
I0
sS'6131'
p2086
I0
sS'4718'
p2087
I0
sS'4719'
p2088
I0
sS'6134'
p2089
I0
sS'6135'
p2090
I0
sS'4479'
p2091
I1
sS'4478'
p2092
I1
sS'4471'
p2093
I1
sS'4470'
p2094
I1
sS'4473'
p2095
I1
sS'4472'
p2096
I1
sS'4475'
p2097
I1
sS'4474'
p2098
I1
sS'4477'
p2099
I1
sS'4476'
p2100
I1
sS'4909'
p2101
I0
sS'4908'
p2102
I0
sS'6004'
p2103
I0
sS'6005'
p2104
I0
sS'6002'
p2105
I0
sS'6003'
p2106
I0
sS'4679'
p2107
I0
sS'4678'
p2108
I0
sS'4901'
p2109
I0
sS'4676'
p2110
I0
sS'4675'
p2111
I0
sS'4674'
p2112
I0
sS'4673'
p2113
I0
sS'4672'
p2114
I0
sS'4907'
p2115
I0
sS'4906'
p2116
I0
sS'2248'
p2117
I0
sS'2249'
p2118
I0
sS'2244'
p2119
I0
sS'2245'
p2120
I0
sS'2246'
p2121
I0
sS'2247'
p2122
I0
sS'2240'
p2123
I0
sS'2241'
p2124
I0
sS'2242'
p2125
I0
sS'2243'
p2126
I0
sS'6290'
p2127
I0
sS'120'
p2128
I0
sS'121'
p2129
I0
sS'122'
p2130
I0
sS'123'
p2131
I0
sS'124'
p2132
I0
sS'125'
p2133
I0
sS'126'
p2134
I0
sS'127'
p2135
I0
sS'128'
p2136
I0
sS'129'
p2137
I0
sS'4875'
p2138
I0
sS'4874'
p2139
I0
sS'4877'
p2140
I0
sS'4876'
p2141
I0
sS'4871'
p2142
I0
sS'4870'
p2143
I0
sS'4873'
p2144
I0
sS'4872'
p2145
I0
sS'4879'
p2146
I0
sS'4878'
p2147
I0
sS'2068'
p2148
I0
sS'2069'
p2149
I0
sS'2060'
p2150
I0
sS'2061'
p2151
I0
sS'2062'
p2152
I0
sS'2063'
p2153
I0
sS'2064'
p2154
I0
sS'2065'
p2155
I0
sS'2066'
p2156
I0
sS'2067'
p2157
I0
sS'6136'
p2158
I0
sS'4497'
p2159
I1
sS'4496'
p2160
I1
sS'4495'
p2161
I1
sS'4494'
p2162
I1
sS'4493'
p2163
I1
sS'4492'
p2164
I1
sS'4491'
p2165
I1
sS'4490'
p2166
I1
sS'4499'
p2167
I1
sS'4498'
p2168
I1
sS'721'
p2169
I0
sS'6288'
p2170
I0
sS'4228'
p2171
I0
sS'6289'
p2172
I0
sS'605'
p2173
I0
sS'579'
p2174
I0
sS'578'
p2175
I0
sS'6178'
p2176
I0
sS'604'
p2177
I0
sS'573'
p2178
I0
sS'572'
p2179
I0
sS'571'
p2180
I0
sS'570'
p2181
I0
sS'577'
p2182
I0
sS'576'
p2183
I0
sS'575'
p2184
I0
sS'574'
p2185
I0
sS'6176'
p2186
I0
sS'606'
p2187
I0
sS'6177'
p2188
I0
sS'601'
p2189
I0
sS'600'
p2190
I0
sS'4981'
p2191
I0
sS'603'
p2192
I0
sS'4980'
p2193
I0
sS'602'
p2194
I0
sS'2156'
p2195
I0
sS'4982'
p2196
I0
sS'2150'
p2197
I0
sS'2151'
p2198
I0
sS'4273'
p2199
I0
sS'4272'
p2200
I0
sS'4271'
p2201
I0
sS'4270'
p2202
I0
sS'4277'
p2203
I0
sS'2152'
p2204
I0
sS'4275'
p2205
I0
sS'4274'
p2206
I0
sS'465'
p2207
I0
sS'464'
p2208
I0
sS'467'
p2209
I0
sS'2153'
p2210
I0
sS'461'
p2211
I0
sS'460'
p2212
I0
sS'463'
p2213
I0
sS'462'
p2214
I0
sS'4862'
p2215
I0
sS'4863'
p2216
I0
sS'4241'
p2217
I0
sS'4860'
p2218
I0
sS'4854'
p2219
I0
sS'4861'
p2220
I0
sS'2011'
p2221
I0
sS'4867'
p2222
I0
sS'4864'
p2223
I0
sS'4865'
p2224
I0
sS'4859'
p2225
I0
sS'6280'
p2226
I0
sS'4019'
p2227
I0
sS'4018'
p2228
I0
sS'6281'
p2229
I0
sS'4013'
p2230
I0
sS'4012'
p2231
I0
sS'4011'
p2232
I0
sS'4010'
p2233
I0
sS'4017'
p2234
I0
sS'4016'
p2235
I0
sS'4015'
p2236
I0
sS'4014'
p2237
I0
sS'357'
p2238
I0
sS'356'
p2239
I0
sS'355'
p2240
I0
sS'354'
p2241
I0
sS'353'
p2242
I0
sS'352'
p2243
I0
sS'351'
p2244
I0
sS'350'
p2245
I0
sS'359'
p2246
I0
sS'358'
p2247
I0
sS'43'
p2248
I0
sS'6125'
p2249
I0
sS'4855'
p2250
I0
sS'6127'
p2251
I0
sS'6126'
p2252
I0
sS'6121'
p2253
I0
sS'6120'
p2254
I0
sS'6123'
p2255
I0
sS'6122'
p2256
I0
sS'6129'
p2257
I0
sS'6128'
p2258
I0
sS'4707'
p2259
I0
sS'4706'
p2260
I0
sS'4705'
p2261
I0
sS'4704'
p2262
I0
sS'4703'
p2263
I0
sS'4702'
p2264
I0
sS'4701'
p2265
I0
sS'4700'
p2266
I0
sS'2329'
p2267
I0
sS'2328'
p2268
I0
sS'4709'
p2269
I0
sS'4708'
p2270
I0
sS'289'
p2271
I0
sS'288'
p2272
I0
sS'281'
p2273
I0
sS'280'
p2274
I0
sS'283'
p2275
I0
sS'282'
p2276
I0
sS'285'
p2277
I0
sS'284'
p2278
I0
sS'287'
p2279
I0
sS'286'
p2280
I0
sS'263'
p2281
I0
sS'262'
p2282
I0
sS'261'
p2283
I0
sS'260'
p2284
I0
sS'267'
p2285
I0
sS'266'
p2286
I0
sS'265'
p2287
I0
sS'264'
p2288
I0
sS'269'
p2289
I0
sS'268'
p2290
I0
sS'6011'
p2291
I0
sS'4633'
p2292
I0
sS'4648'
p2293
I0
sS'4649'
p2294
I0
sS'6015'
p2295
I0
sS'6014'
p2296
I0
sS'6017'
p2297
I0
sS'4632'
p2298
I0
sS'4642'
p2299
I0
sS'4643'
p2300
I0
sS'4640'
p2301
I0
sS'4641'
p2302
I0
sS'4646'
p2303
I0
sS'2192'
p2304
I1
sS'4644'
p2305
I0
sS'4645'
p2306
I0
sS'2193'
p2307
I1
sS'2259'
p2308
I0
sS'2258'
p2309
I0
sS'2257'
p2310
I0
sS'4637'
p2311
I0
sS'2255'
p2312
I0
sS'2254'
p2313
I0
sS'2253'
p2314
I0
sS'2252'
p2315
I0
sS'2251'
p2316
I0
sS'4636'
p2317
I0
sS'4635'
p2318
I0
sS'4634'
p2319
I0
sS'115'
p2320
I0
sS'114'
p2321
I0
sS'117'
p2322
I0
sS'116'
p2323
I0
sS'111'
p2324
I0
sS'110'
p2325
I0
sS'113'
p2326
I0
sS'112'
p2327
I0
sS'119'
p2328
I0
sS'4639'
p2329
I0
sS'4800'
p2330
I0
sS'4801'
p2331
I0
sS'4802'
p2332
I0
sS'4803'
p2333
I0
sS'4804'
p2334
I0
sS'4805'
p2335
I0
sS'4806'
p2336
I0
sS'4807'
p2337
I0
sS'4808'
p2338
I0
sS'4809'
p2339
I0
sS'2079'
p2340
I0
sS'2078'
p2341
I0
sS'2073'
p2342
I0
sS'2072'
p2343
I0
sS'2071'
p2344
I0
sS'2070'
p2345
I0
sS'2077'
p2346
I0
sS'2076'
p2347
I0
sS'2075'
p2348
I0
sS'2074'
p2349
I0
sS'4098'
p2350
I0
sS'6270'
p2351
I0
sS'4968'
p2352
I0
sS'6273'
p2353
I0
sS'488'
p2354
I0
sS'6272'
p2355
I0
sS'482'
p2356
I0
sS'568'
p2357
I0
sS'569'
p2358
I0
sS'560'
p2359
I0
sS'561'
p2360
I0
sS'562'
p2361
I0
sS'563'
p2362
I0
sS'564'
p2363
I0
sS'565'
p2364
I0
sS'566'
p2365
I0
sS'567'
p2366
I0
sS'6100'
p2367
I0
sS'726'
p2368
I0
sS'727'
p2369
I0
sS'724'
p2370
I0
sS'725'
p2371
I0
sS'722'
p2372
I0
sS'723'
p2373
I0
sS'720'
p2374
I0
sS'4391'
p2375
I1
sS'728'
p2376
I0
sS'729'
p2377
I0
sS'4248'
p2378
I0
sS'4249'
p2379
I0
sS'4246'
p2380
I0
sS'4247'
p2381
I0
sS'4244'
p2382
I0
sS'4245'
p2383
I0
sS'4242'
p2384
I0
sS'4243'
p2385
I0
sS'4240'
p2386
I0
sS'2035'
p2387
I0
sS'6276'
p2388
I0
sS'48'
p2389
I0
sS'49'
p2390
I0
sS'46'
p2391
I0
sS'47'
p2392
I0
sS'44'
p2393
I0
sS'45'
p2394
I0
sS'42'
p2395
I0
sS'2034'
p2396
I0
sS'40'
p2397
I0
sS'41'
p2398
I0
sS'4693'
p2399
I0
sS'4848'
p2400
I0
sS'6278'
p2401
I0
sS'4398'
p2402
I1
sS'4399'
p2403
I1
sS'590'
p2404
I0
sS'2032'
p2405
I0
sS'4392'
p2406
I1
sS'4393'
p2407
I1
sS'4394'
p2408
I1
sS'4395'
p2409
I1
sS'4396'
p2410
I1
sS'4397'
p2411
I1
sS'472'
p2412
I0
sS'473'
p2413
I0
sS'470'
p2414
I0
sS'471'
p2415
I0
sS'476'
p2416
I0
sS'477'
p2417
I0
sS'474'
p2418
I0
sS'475'
p2419
I0
sS'478'
p2420
I0
sS'479'
p2421
I0
s.