(dp0
S'344'
p1
I0
sS'345'
p2
I0
sS'346'
p3
I0
sS'347'
p4
I0
sS'340'
p5
I0
sS'341'
p6
I0
sS'342'
p7
I0
sS'343'
p8
I0
sS'348'
p9
I0
sS'349'
p10
I0
sS'298'
p11
I0
sS'299'
p12
I0
sS'296'
p13
I0
sS'297'
p14
I0
sS'294'
p15
I0
sS'295'
p16
I0
sS'292'
p17
I0
sS'293'
p18
I0
sS'290'
p19
I0
sS'291'
p20
I0
sS'199'
p21
I0
sS'198'
p22
I0
sS'195'
p23
I0
sS'194'
p24
I0
sS'197'
p25
I0
sS'196'
p26
I0
sS'191'
p27
I0
sS'190'
p28
I0
sS'193'
p29
I0
sS'192'
p30
I0
sS'270'
p31
I0
sS'271'
p32
I0
sS'272'
p33
I0
sS'273'
p34
I0
sS'274'
p35
I0
sS'275'
p36
I0
sS'276'
p37
I0
sS'277'
p38
I0
sS'278'
p39
I0
sS'279'
p40
I0
sS'524'
p41
I0
sS'525'
p42
I0
sS'526'
p43
I0
sS'527'
p44
I0
sS'520'
p45
I0
sS'521'
p46
I0
sS'522'
p47
I0
sS'523'
p48
I0
sS'528'
p49
I0
sS'529'
p50
I0
sS'449'
p51
I0
sS'448'
p52
I0
sS'443'
p53
I0
sS'442'
p54
I0
sS'441'
p55
I0
sS'440'
p56
I0
sS'447'
p57
I0
sS'446'
p58
I0
sS'445'
p59
I0
sS'444'
p60
I0
sS'108'
p61
I0
sS'109'
p62
I0
sS'102'
p63
I0
sS'103'
p64
I0
sS'100'
p65
I0
sS'101'
p66
I0
sS'106'
p67
I0
sS'107'
p68
I0
sS'104'
p69
I0
sS'105'
p70
I0
sS'39'
p71
I0
sS'38'
p72
I0
sS'33'
p73
I0
sS'32'
p74
I0
sS'31'
p75
I0
sS'30'
p76
I0
sS'37'
p77
I0
sS'36'
p78
I0
sS'35'
p79
I0
sS'34'
p80
I0
sS'438'
p81
I1
sS'439'
p82
I1
sS'436'
p83
I1
sS'437'
p84
I1
sS'434'
p85
I1
sS'435'
p86
I1
sS'432'
p87
I1
sS'433'
p88
I1
sS'430'
p89
I1
sS'431'
p90
I1
sS'339'
p91
I0
sS'338'
p92
I0
sS'335'
p93
I0
sS'334'
p94
I0
sS'337'
p95
I0
sS'336'
p96
I0
sS'331'
p97
I0
sS'330'
p98
I0
sS'333'
p99
I0
sS'332'
p100
I0
sS'6'
p101
I0
sS'99'
p102
I0
sS'98'
p103
I0
sS'91'
p104
I0
sS'90'
p105
I0
sS'93'
p106
I0
sS'92'
p107
I0
sS'95'
p108
I0
sS'94'
p109
I0
sS'97'
p110
I0
sS'96'
p111
I0
sS'559'
p112
I0
sS'558'
p113
I0
sS'555'
p114
I0
sS'554'
p115
I0
sS'557'
p116
I0
sS'556'
p117
I0
sS'551'
p118
I0
sS'550'
p119
I0
sS'553'
p120
I0
sS'552'
p121
I0
sS'238'
p122
I0
sS'239'
p123
I0
sS'234'
p124
I0
sS'235'
p125
I0
sS'236'
p126
I0
sS'237'
p127
I0
sS'230'
p128
I0
sS'231'
p129
I0
sS'232'
p130
I0
sS'233'
p131
I0
sS'1'
p132
I0
sS'146'
p133
I0
sS'147'
p134
I0
sS'144'
p135
I0
sS'145'
p136
I0
sS'142'
p137
I0
sS'143'
p138
I0
sS'140'
p139
I0
sS'141'
p140
I0
sS'148'
p141
I0
sS'149'
p142
I0
sS'133'
p143
I0
sS'132'
p144
I0
sS'131'
p145
I0
sS'130'
p146
I0
sS'137'
p147
I0
sS'499'
p148
I0
sS'135'
p149
I0
sS'134'
p150
I0
sS'494'
p151
I0
sS'495'
p152
I0
sS'496'
p153
I0
sS'138'
p154
I0
sS'490'
p155
I0
sS'491'
p156
I0
sS'492'
p157
I0
sS'493'
p158
I0
sS'24'
p159
I0
sS'25'
p160
I0
sS'26'
p161
I0
sS'27'
p162
I0
sS'20'
p163
I0
sS'21'
p164
I0
sS'22'
p165
I0
sS'23'
p166
I0
sS'28'
p167
I0
sS'29'
p168
I0
sS'407'
p169
I1
sS'406'
p170
I1
sS'405'
p171
I1
sS'404'
p172
I1
sS'403'
p173
I1
sS'402'
p174
I1
sS'401'
p175
I1
sS'400'
p176
I1
sS'409'
p177
I1
sS'408'
p178
I1
sS'379'
p179
I1
sS'378'
p180
I1
sS'371'
p181
I0
sS'370'
p182
I0
sS'373'
p183
I0
sS'372'
p184
I0
sS'375'
p185
I0
sS'374'
p186
I0
sS'377'
p187
I1
sS'376'
p188
I1
sS'393'
p189
I1
sS'392'
p190
I1
sS'391'
p191
I1
sS'89'
p192
I0
sS'397'
p193
I1
sS'396'
p194
I1
sS'395'
p195
I1
sS'394'
p196
I1
sS'82'
p197
I0
sS'83'
p198
I0
sS'80'
p199
I0
sS'398'
p200
I1
sS'86'
p201
I0
sS'87'
p202
I0
sS'84'
p203
I0
sS'85'
p204
I0
sS'7'
p205
I0
sS'584'
p206
I0
sS'582'
p207
I0
sS'583'
p208
I0
sS'580'
p209
I0
sS'581'
p210
I0
sS'245'
p211
I0
sS'244'
p212
I0
sS'247'
p213
I0
sS'246'
p214
I0
sS'241'
p215
I0
sS'240'
p216
I0
sS'243'
p217
I0
sS'242'
p218
I0
sS'249'
p219
I0
sS'248'
p220
I0
sS'519'
p221
I0
sS'518'
p222
I0
sS'511'
p223
I0
sS'510'
p224
I0
sS'513'
p225
I0
sS'512'
p226
I0
sS'515'
p227
I0
sS'514'
p228
I0
sS'517'
p229
I0
sS'516'
p230
I0
sS'458'
p231
I0
sS'459'
p232
I0
sS'450'
p233
I0
sS'451'
p234
I0
sS'452'
p235
I0
sS'453'
p236
I0
sS'454'
p237
I0
sS'455'
p238
I0
sS'456'
p239
I0
sS'457'
p240
I0
sS'179'
p241
I0
sS'178'
p242
I0
sS'177'
p243
I0
sS'176'
p244
I0
sS'175'
p245
I0
sS'174'
p246
I0
sS'173'
p247
I0
sS'172'
p248
I0
sS'171'
p249
I0
sS'170'
p250
I0
sS'253'
p251
I0
sS'182'
p252
I0
sS'183'
p253
I0
sS'180'
p254
I0
sS'2'
p255
I0
sS'186'
p256
I0
sS'187'
p257
I0
sS'184'
p258
I0
sS'185'
p259
I0
sS'188'
p260
I0
sS'189'
p261
I0
sS'11'
p262
I0
sS'10'
p263
I0
sS'13'
p264
I0
sS'12'
p265
I0
sS'15'
p266
I0
sS'14'
p267
I0
sS'17'
p268
I0
sS'16'
p269
I0
sS'19'
p270
I0
sS'18'
p271
I0
sS'322'
p272
I0
sS'323'
p273
I0
sS'320'
p274
I0
sS'321'
p275
I0
sS'326'
p276
I0
sS'327'
p277
I0
sS'324'
p278
I0
sS'325'
p279
I0
sS'328'
p280
I0
sS'329'
p281
I0
sS'201'
p282
I0
sS'200'
p283
I0
sS'203'
p284
I0
sS'202'
p285
I0
sS'205'
p286
I0
sS'204'
p287
I0
sS'207'
p288
I0
sS'206'
p289
I0
sS'209'
p290
I0
sS'208'
p291
I0
sS'77'
p292
I0
sS'76'
p293
I0
sS'75'
p294
I0
sS'74'
p295
I0
sS'73'
p296
I0
sS'72'
p297
I0
sS'71'
p298
I0
sS'70'
p299
I0
sS'79'
p300
I0
sS'78'
p301
I0
sS'542'
p302
I0
sS'543'
p303
I0
sS'540'
p304
I0
sS'541'
p305
I0
sS'546'
p306
I0
sS'547'
p307
I0
sS'544'
p308
I0
sS'545'
p309
I0
sS'8'
p310
I0
sS'548'
p311
I0
sS'549'
p312
I0
sS'68'
p313
I0
sS'120'
p314
I0
sS'121'
p315
I0
sS'122'
p316
I0
sS'123'
p317
I0
sS'124'
p318
I0
sS'125'
p319
I0
sS'126'
p320
I0
sS'127'
p321
I0
sS'128'
p322
I0
sS'129'
p323
I0
sS'414'
p324
I1
sS'415'
p325
I1
sS'416'
p326
I1
sS'417'
p327
I1
sS'410'
p328
I1
sS'411'
p329
I1
sS'412'
p330
I1
sS'413'
p331
I1
sS'498'
p332
I0
sS'418'
p333
I1
sS'419'
p334
I1
sS'136'
p335
I0
sS'319'
p336
I0
sS'318'
p337
I0
sS'313'
p338
I0
sS'312'
p339
I0
sS'311'
p340
I0
sS'310'
p341
I0
sS'317'
p342
I0
sS'316'
p343
I0
sS'315'
p344
I0
sS'314'
p345
I0
sS'139'
p346
I0
sS'497'
p347
I0
sS'3'
p348
I0
sS'368'
p349
I0
sS'369'
p350
I0
sS'366'
p351
I0
sS'367'
p352
I0
sS'364'
p353
I0
sS'365'
p354
I0
sS'362'
p355
I0
sS'363'
p356
I0
sS'360'
p357
I0
sS'361'
p358
I0
sS'380'
p359
I1
sS'381'
p360
I1
sS'382'
p361
I1
sS'383'
p362
I1
sS'384'
p363
I1
sS'385'
p364
I1
sS'386'
p365
I1
sS'387'
p366
I1
sS'388'
p367
I1
sS'389'
p368
I1
sS'579'
p369
I0
sS'578'
p370
I0
sS'573'
p371
I0
sS'572'
p372
I0
sS'571'
p373
I0
sS'570'
p374
I0
sS'577'
p375
I0
sS'576'
p376
I0
sS'575'
p377
I0
sS'574'
p378
I0
sS'60'
p379
I0
sS'61'
p380
I0
sS'62'
p381
I0
sS'259'
p382
I0
sS'64'
p383
I0
sS'65'
p384
I0
sS'66'
p385
I0
sS'67'
p386
I0
sS'252'
p387
I0
sS'69'
p388
I0
sS'250'
p389
I0
sS'251'
p390
I0
sS'256'
p391
I0
sS'257'
p392
I0
sS'254'
p393
I0
sS'255'
p394
I0
sS'508'
p395
I0
sS'509'
p396
I0
sS'506'
p397
I0
sS'507'
p398
I0
sS'504'
p399
I0
sS'505'
p400
I0
sS'502'
p401
I0
sS'503'
p402
I0
sS'500'
p403
I0
sS'501'
p404
I0
sS'469'
p405
I0
sS'468'
p406
I0
sS'465'
p407
I0
sS'464'
p408
I0
sS'467'
p409
I0
sS'466'
p410
I0
sS'461'
p411
I0
sS'460'
p412
I0
sS'463'
p413
I0
sS'462'
p414
I0
sS'168'
p415
I0
sS'169'
p416
I0
sS'164'
p417
I0
sS'165'
p418
I0
sS'166'
p419
I0
sS'167'
p420
I0
sS'160'
p421
I0
sS'161'
p422
I0
sS'162'
p423
I0
sS'163'
p424
I0
sS'9'
p425
I0
sS'357'
p426
I0
sS'356'
p427
I0
sS'355'
p428
I0
sS'354'
p429
I0
sS'353'
p430
I0
sS'352'
p431
I0
sS'351'
p432
I0
sS'350'
p433
I0
sS'359'
p434
I0
sS'358'
p435
I0
sS'216'
p436
I0
sS'217'
p437
I0
sS'214'
p438
I0
sS'215'
p439
I0
sS'212'
p440
I0
sS'213'
p441
I0
sS'210'
p442
I0
sS'211'
p443
I0
sS'218'
p444
I0
sS'219'
p445
I0
sS'289'
p446
I0
sS'288'
p447
I0
sS'4'
p448
I0
sS'281'
p449
I0
sS'280'
p450
I0
sS'283'
p451
I0
sS'282'
p452
I0
sS'285'
p453
I0
sS'284'
p454
I0
sS'287'
p455
I0
sS'286'
p456
I0
sS'263'
p457
I0
sS'262'
p458
I0
sS'261'
p459
I0
sS'260'
p460
I0
sS'267'
p461
I0
sS'266'
p462
I0
sS'265'
p463
I0
sS'264'
p464
I0
sS'269'
p465
I0
sS'268'
p466
I0
sS'59'
p467
I0
sS'58'
p468
I0
sS'55'
p469
I0
sS'54'
p470
I0
sS'57'
p471
I0
sS'56'
p472
I0
sS'51'
p473
I0
sS'258'
p474
I0
sS'53'
p475
I0
sS'52'
p476
I0
sS'537'
p477
I0
sS'536'
p478
I0
sS'535'
p479
I0
sS'63'
p480
I0
sS'533'
p481
I0
sS'532'
p482
I0
sS'531'
p483
I0
sS'530'
p484
I0
sS'539'
p485
I0
sS'538'
p486
I0
sS'50'
p487
I0
sS'115'
p488
I0
sS'114'
p489
I0
sS'117'
p490
I0
sS'116'
p491
I0
sS'111'
p492
I0
sS'110'
p493
I0
sS'113'
p494
I0
sS'112'
p495
I0
sS'119'
p496
I0
sS'118'
p497
I0
sS'429'
p498
I1
sS'428'
p499
I1
sS'534'
p500
I0
sS'421'
p501
I1
sS'420'
p502
I1
sS'423'
p503
I1
sS'422'
p504
I1
sS'425'
p505
I1
sS'424'
p506
I1
sS'427'
p507
I1
sS'426'
p508
I1
sS'308'
p509
I0
sS'309'
p510
I0
sS'300'
p511
I0
sS'301'
p512
I0
sS'302'
p513
I0
sS'303'
p514
I0
sS'304'
p515
I0
sS'305'
p516
I0
sS'306'
p517
I0
sS'307'
p518
I0
sS'181'
p519
I0
sS'568'
p520
I0
sS'569'
p521
I0
sS'560'
p522
I0
sS'561'
p523
I0
sS'562'
p524
I0
sS'563'
p525
I0
sS'564'
p526
I0
sS'565'
p527
I0
sS'566'
p528
I0
sS'567'
p529
I0
sS'229'
p530
I0
sS'228'
p531
I0
sS'227'
p532
I0
sS'226'
p533
I0
sS'225'
p534
I0
sS'224'
p535
I0
sS'223'
p536
I0
sS'222'
p537
I0
sS'221'
p538
I0
sS'220'
p539
I0
sS'88'
p540
I0
sS'390'
p541
I1
sS'151'
p542
I0
sS'150'
p543
I0
sS'153'
p544
I0
sS'152'
p545
I0
sS'155'
p546
I0
sS'154'
p547
I0
sS'157'
p548
I0
sS'156'
p549
I0
sS'159'
p550
I0
sS'158'
p551
I0
sS'399'
p552
I1
sS'81'
p553
I0
sS'48'
p554
I0
sS'49'
p555
I0
sS'46'
p556
I0
sS'47'
p557
I0
sS'44'
p558
I0
sS'45'
p559
I0
sS'42'
p560
I0
sS'43'
p561
I0
sS'40'
p562
I0
sS'41'
p563
I0
sS'5'
p564
I0
sS'489'
p565
I0
sS'488'
p566
I0
sS'487'
p567
I0
sS'486'
p568
I0
sS'485'
p569
I0
sS'484'
p570
I0
sS'483'
p571
I0
sS'482'
p572
I0
sS'481'
p573
I0
sS'480'
p574
I0
sS'472'
p575
I0
sS'473'
p576
I0
sS'470'
p577
I0
sS'471'
p578
I0
sS'476'
p579
I0
sS'477'
p580
I0
sS'474'
p581
I0
sS'475'
p582
I0
sS'478'
p583
I0
sS'479'
p584
I0
s.